LX51 LINKER/LOCATER V4.41                                                               12/15/2021  14:01:25  PAGE 1


LX51 LINKER/LOCATER V4.41, INVOKED BY:
C:\KEIL\C51\BIN\LX51.EXE .\OUT\STARTUP.obj, .\OUT\main.obj, .\OUT\init.obj, .\OUT\int.obj, .\OUT\key.obj, .\OUT\util.obj
>> , .\OUT\disp.obj, .\OUT\uart.obj TO .\OUT\HIFIL_CREAMT01 PRINT (.\LIST\HIFIL_CREAMT01.map) CLASSES (XDATA (X:0X0-X:0X
>> 1FF), HDATA (X:0X0-X:0X1FF), CODE (C:0X0-C:0X3FFF), CONST (C:0X0-C:0X3FFF), ECODE (C:0X0-C:0X3FFF), HCONST (C:0X0-C:0
>> X3FFF))


CPU MODE:     8051 MODE
MEMORY MODEL: LARGE


INPUT MODULES INCLUDED:
  .\OUT\STARTUP.obj (?C_STARTUP)
         COMMENT TYPE 0: AX51 V3.06h
  .\OUT\main.obj (MAIN)
         COMMENT TYPE 0: C51 V9.00
  .\OUT\init.obj (INIT)
         COMMENT TYPE 0: C51 V9.00
  .\OUT\int.obj (INT)
         COMMENT TYPE 0: C51 V9.00
  .\OUT\key.obj (KEY)
         COMMENT TYPE 0: C51 V9.00
  .\OUT\util.obj (UTIL)
         COMMENT TYPE 0: C51 V9.00
  .\OUT\disp.obj (DISP)
         COMMENT TYPE 0: C51 V9.00
  .\OUT\uart.obj (UART)
         COMMENT TYPE 0: C51 V9.00
  C:\KEIL\C51\LIB\C51L.LIB (?C?CLDPTR)
         COMMENT TYPE 1: A51 / ASM51 Assembler
  C:\KEIL\C51\LIB\C51L.LIB (?C?CLDOPTR)
         COMMENT TYPE 1: A51 / ASM51 Assembler
  C:\KEIL\C51\LIB\C51L.LIB (?C?CSTPTR)
         COMMENT TYPE 1: A51 / ASM51 Assembler
  C:\KEIL\C51\LIB\C51L.LIB (?C?IILDX)
         COMMENT TYPE 1: A51 / ASM51 Assembler
  C:\KEIL\C51\LIB\C51L.LIB (?C?ILDOPTR)
         COMMENT TYPE 1: A51 / ASM51 Assembler
  C:\KEIL\C51\LIB\C51L.LIB (?C?ISTOPTR)
         COMMENT TYPE 1: A51 / ASM51 Assembler
  C:\KEIL\C51\LIB\C51L.LIB (?C?SLCMP)
         COMMENT TYPE 1: A51 / ASM51 Assembler
  C:\KEIL\C51\LIB\C51L.LIB (?C?MEMSET)
         COMMENT TYPE 1: A51 / ASM51 Assembler


ACTIVE MEMORY CLASSES OF MODULE:  .\OUT\HIFIL_CREAMT01 (?C_STARTUP)

BASE        START       END         USED      MEMORY CLASS
==========================================================
X:000000H   X:000000H   X:0001FFH   000103H   XDATA
X:000000H   X:000000H   X:0001FFH             HDATA
C:000000H   C:000000H   C:003FFFH   001252H   CODE
C:000000H   C:000000H   C:003FFFH   000031H   CONST
C:000000H   C:000000H   C:003FFFH             ECODE
B00:0000H   C:000000H   C:003FFFH             HCONST
I:000000H   I:000000H   I:0000FFH   000038H   IDATA
I:000000H   I:000000H   I:00007FH   000008H   DATA


MEMORY MAP OF MODULE:  .\OUT\HIFIL_CREAMT01 (?C_STARTUP)


START     STOP      LENGTH    ALIGN  RELOC    MEMORY CLASS   SEGMENT NAME
=========================================================================

LX51 LINKER/LOCATER V4.41                                                             12/15/2021  14:01:25  PAGE 2


* * * * * * * * * * *   D A T A   M E M O R Y   * * * * * * * * * * * * *
000000H   000007H   000008H   ---    AT..     DATA           "REG BANK 0"
000008H   00003EH   000037H   BYTE   UNIT     IDATA          ?ID?MAIN
00003FH   00003FH   000001H   BYTE   UNIT     IDATA          ?STACK

* * * * * * * * * * *   C O D E   M E M O R Y   * * * * * * * * * * * * *
000000H   000002H   000003H   ---    OFFS..   CODE           ?CO?STARTUP?3
000003H   000005H   000003H   BYTE   OFFS..   CODE           ?INT?00003
000006H   00001AH   000015H   BYTE   INBLOCK  CODE           ?PR?TIMER1_INIT?INIT
00001BH   00001DH   000003H   BYTE   OFFS..   CODE           ?INT?0001B
00001EH   000021H   000004H   BYTE   INBLOCK  CODE           ?PR?WDT_ENABLE?INIT
000022H   000022H   000001H   BYTE   INBLOCK  CODE           ?PR?EXT10_INT?INT
000023H   000025H   000003H   BYTE   OFFS..   CODE           ?INT?00023
000026H   000029H   000004H   BYTE   INBLOCK  CODE           ?PR?WDT_DISABLE?INIT
00002AH   00002AH   000001H   BYTE   INBLOCK  CODE           ?PR?RESV0_INT?INT
00002BH   00002DH   000003H   BYTE   OFFS..   CODE           ?INT?0002B
00002EH   000031H   000004H   BYTE   INBLOCK  CODE           ?PR?WDT_CLEAR?INIT
000032H   000032H   000001H   BYTE   INBLOCK  CODE           ?PR?RESV1_INT?INT
000033H   000035H   000003H   BYTE   OFFS..   CODE           ?INT?00033
000036H   000039H   000004H   BYTE   INBLOCK  CODE           ?PR?EXT0_4_INT?INT
00003AH   00003AH   000001H   BYTE   INBLOCK  CODE           ?PR?EXT5_INT?INT
00003BH   00003DH   000003H   BYTE   OFFS..   CODE           ?INT?0003B
00003EH   00003EH   000001H   BYTE   INBLOCK  CODE           ?PR?EXT6_INT?INT
00003FH   00003FH   000001H   BYTE   INBLOCK  CODE           ?PR?I2C_INT?INT
000040H   000040H   000001H   BYTE   INBLOCK  CODE           ?PR?ADC_WAKE_UP?INT
000041H   000041H   000001H   BYTE   INBLOCK  CODE           ?PR?TIMER0_OVER_FLOW_INT?INT
000042H   000042H   000001H   BYTE   INBLOCK  CODE           ?PR?RESV2_INT?INT
000043H   000045H   000003H   BYTE   OFFS..   CODE           ?INT?00043
000046H   000046H   000001H   BYTE   INBLOCK  CODE           ?PR?EXT7_A_INT?INT
000047H   000047H   000001H   BYTE   INBLOCK  CODE           ?PR?ADC_INT?INT
000048H   000048H   000001H   BYTE   INBLOCK  CODE           ?PR?SPI_INT?INT
000049H   000049H   000001H   BYTE   INBLOCK  CODE           ?PR?WDT_INT?INT
00004AH   00004AH   000001H   BYTE   INBLOCK  CODE           ?PR?INT_BIT?INT
00004BH   00004DH   000003H   BYTE   OFFS..   CODE           ?UART?0004B
00004EH   000052H   000005H   BYTE   UNIT     CONST          ?CO?DISP
000053H   000055H   000003H   BYTE   OFFS..   CODE           ?UART?00053
000056H   00005AH   000005H   ---    ---      **GAP**
00005BH   00005DH   000003H   BYTE   OFFS..   CODE           ?INT?0005B
00005EH   000062H   000005H   ---    ---      **GAP**
000063H   000065H   000003H   BYTE   OFFS..   CODE           ?INT?00063
000066H   00006AH   000005H   ---    ---      **GAP**
00006BH   00006DH   000003H   BYTE   OFFS..   CODE           ?INT?0006B
00006EH   00007AH   00000DH   BYTE   INBLOCK  CODE           ?PR?TIMER0_INIT?INIT
00007BH   00007DH   000003H   BYTE   OFFS..   CODE           ?INT?0007B
00007EH   000082H   000005H   ---    ---      **GAP**
000083H   000085H   000003H   BYTE   OFFS..   CODE           ?INT?00083
000086H   00008AH   000005H   ---    ---      **GAP**
00008BH   00008DH   000003H   BYTE   OFFS..   CODE           ?INT?0008B
00008EH   000092H   000005H   ---    ---      **GAP**
000093H   000095H   000003H   BYTE   OFFS..   CODE           ?INT?00093
000096H   00009AH   000005H   ---    ---      **GAP**
00009BH   00009DH   000003H   BYTE   OFFS..   CODE           ?INT?0009B
00009EH   0000AAH   00000DH   BYTE   INBLOCK  CODE           ?PR?TIMER1_START?INIT
0000ABH   0000ADH   000003H   BYTE   OFFS..   CODE           ?INT?000AB
0000AEH   0000B2H   000005H   ---    ---      **GAP**
0000B3H   0000B5H   000003H   BYTE   OFFS..   CODE           ?INT?000B3
0000B6H   0002A7H   0001F2H   BYTE   INBLOCK  CODE           ?PR?KEYANALY1?KEY
0002A8H   000479H   0001D2H   BYTE   INBLOCK  CODE           ?PR?ADC_PROC?MAIN
00047AH   0005E7H   00016EH   BYTE   INBLOCK  CODE           ?PR?MAIN_PROC?MAIN
0005E8H   000729H   000142H   BYTE   INBLOCK  CODE           ?PR?_CODEFLASH_WRITE?UTIL
00072AH   0007F4H   0000CBH   BYTE   INBLOCK  CODE           ?PR?RAM_INIT?INIT
0007F5H   0007FEH   00000AH   BYTE   INBLOCK  CODE           ?PR?KEY_PROC?KEY
0007FFH   0007FFH   000001H   ---    ---      **GAP**
000800H   000916H   000117H   BYTE   INBLOCK  CODE           ?PR?_ADC_CAL?MAIN
000917H   000A15H   0000FFH   BYTE   INBLOCK  CODE           ?PR?TIMER0_INT?INT
LX51 LINKER/LOCATER V4.41                                                             12/15/2021  14:01:25  PAGE 3


000A16H   000B04H   0000EFH   BYTE   INBLOCK  CODE           ?PR?_SEQUENCESORT?MAIN
000B05H   000BC6H   0000C2H   BYTE   INBLOCK  CODE           ?PR?DISP_PROC?DISP
000BC7H   000C74H   0000AEH   BYTE   INBLOCK  CODE           ?PR?_CODEFLASH_ERASE?UTIL
000C75H   000D20H   0000ACH   BYTE   INBLOCK  CODE           ?PR?RX_INT?UART
000D21H   000D91H   000071H   BYTE   INBLOCK  CODE           ?PR?_CODEFLASH_READ?UTIL
000D92H   000DECH   00005BH   BYTE   INBLOCK  CODE           ?PR?KEYANALY?KEY
000DEDH   000E43H   000057H   BYTE   INBLOCK  CODE           ?PR?MAIN?MAIN
000E44H   000E97H   000054H   BYTE   INBLOCK  CODE           ?PR?EEPROM_PROC?UTIL
000E98H   000EEAH   000053H   BYTE   INBLOCK  CODE           ?PR?_LFLASH_READ?UTIL
000EEBH   000F39H   00004FH   BYTE   INBLOCK  CODE           ?PR?INT_TIMER2?INT
000F3AH   000F7EH   000045H   BYTE   INBLOCK  CODE           ?PR?_LFLASH_WRITE?UTIL
000F7FH   000FBCH   00003EH   BYTE   INBLOCK  CODE           ?PR?PORT_INIT?INIT
000FBDH   000FF5H   000039H   BYTE   INBLOCK  CODE           ?PR?KEYCHATTERING?KEY
000FF6H   000FFEH   000009H   BYTE   INBLOCK  CODE           ?PR?WDT_INIT?INIT
000FFFH   000FFFH   000001H   ---    ---      **GAP**
001000H   001033H   000034H   BYTE   INBLOCK  CODE           ?PR?TX_INT?UART
001034H   001058H   000025H   BYTE   INBLOCK  CODE           ?PR?ADC_READ?INIT
001059H   00107CH   000024H   BYTE   INBLOCK  CODE           ?PR?KEYCHATTERING1?KEY
00107DH   0010A0H   000024H   BYTE   INBLOCK  CODE           ?PR?KEYANALY2?KEY
0010A1H   0010C1H   000021H   BYTE   INBLOCK  CODE           ?PR?KEYCHATTERING2?KEY
0010C2H   0010D5H   000014H   BYTE   INBLOCK  CODE           ?PR?ADC_INIT?INIT
0010D6H   0010E8H   000013H   BYTE   INBLOCK  CODE           ?PR?TIMER2_INIT?INIT
0010E9H   0010FBH   000013H   BYTE   INBLOCK  CODE           ?PR?KEY_PROC1?KEY
0010FCH   00110DH   000012H   BYTE   INBLOCK  CODE           ?PR?_LFLASH_ERASE?UTIL
00110EH   00111EH   000011H   BYTE   INBLOCK  CODE           ?PR?_DELAY_XMS?MAIN
00111FH   00112DH   00000FH   BYTE   INBLOCK  CODE           ?PR?_ADC_START?INIT
00112EH   00113CH   00000FH   BYTE   INBLOCK  CODE           ?PR?CLOCK_INIT?INIT
00113DH   001149H   00000DH   BYTE   INBLOCK  CODE           ?PR?TIMER1_STOP?INIT
00114AH   001151H   000008H   BYTE   INBLOCK  CODE           ?PR?DISPLAY_OFF?DISP
001152H   001266H   000115H   BYTE   UNIT     CODE           ?C?LIB_CODE
001267H   001280H   00001AH   BYTE   UNIT     CODE           ?C_C51STARTUP
001281H   0012ACH   00002CH   BYTE   UNIT     CONST          ?CO?MAIN

* * * * * * * * * * *  X D A T A   M E M O R Y  * * * * * * * * * * * * *
000000H   0000D4H   0000D5H   BYTE   UNIT     XDATA          ?XD?MAIN
0000D5H   000102H   00002EH   BYTE   UNIT     XDATA          _XDATA_GROUP_



OVERLAY MAP OF MODULE:   .\OUT\HIFIL_CREAMT01 (?C_STARTUP)


FUNCTION/MODULE               XDATA_GROUP
--> CALLED FUNCTION/MODULE    START  STOP
=========================================
?C_C51STARTUP                 ----- -----
  +--> ?PR?MAIN?MAIN

MAIN/MAIN                     ----- -----
  +--> ?PR?WDT_INIT?INIT
  +--> ?PR?WDT_DISABLE?INIT
  +--> ?PR?PORT_INIT?INIT
  +--> ?PR?CLOCK_INIT?INIT
  +--> ?PR?RAM_INIT?INIT
  +--> ?PR?WDT_ENABLE?INIT
  +--> ?PR?ADC_INIT?INIT
  +--> ?PR?TIMER0_INIT?INIT
  +--> ?PR?TIMER1_INIT?INIT
  +--> ?PR?TIMER2_INIT?INIT
  +--> ?PR?TIMER1_START?INIT
  +--> ?PR?MAIN_PROC?MAIN
  +--> ?PR?WDT_CLEAR?INIT
  +--> ?PR?KEY_PROC1?KEY
  +--> ?PR?ADC_PROC?MAIN
  +--> ?PR?EEPROM_PROC?UTIL
LX51 LINKER/LOCATER V4.41                                                             12/15/2021  14:01:25  PAGE 4



WDT_INIT/INIT                 ----- -----
  +--> ?PR?WDT_CLEAR?INIT

WDT_CLEAR/INIT                ----- -----

WDT_DISABLE/INIT              ----- -----

PORT_INIT/INIT                ----- -----

CLOCK_INIT/INIT               ----- -----

RAM_INIT/INIT                 00D5H 00D6H
  +--> ?PR?_DELAY_XMS?MAIN
  +--> ?PR?WDT_CLEAR?INIT
  +--> ?PR?_LFLASH_READ?UTIL

_DELAY_XMS/MAIN               ----- -----

_LFLASH_READ/UTIL             00D7H 00F8H
  +--> ?PR?_CODEFLASH_READ?UTIL

_CODEFLASH_READ/UTIL          00F9H 0102H

WDT_ENABLE/INIT               ----- -----

ADC_INIT/INIT                 ----- -----

TIMER0_INIT/INIT              ----- -----

TIMER1_INIT/INIT              ----- -----
  +--> ?PR?TIMER1_STOP?INIT

TIMER1_STOP/INIT              ----- -----

TIMER2_INIT/INIT              ----- -----

TIMER1_START/INIT             ----- -----

MAIN_PROC/MAIN                ----- -----
  +--> ?PR?TIMER1_STOP?INIT
  +--> ?PR?TIMER1_START?INIT
  +--> ?CO?MAIN

?CO?MAIN                      ----- -----

KEY_PROC1/KEY                 ----- -----
  +--> ?PR?KEYCHATTERING1?KEY
  +--> ?PR?KEYANALY1?KEY
  +--> ?PR?KEYCHATTERING2?KEY
  +--> ?PR?KEYANALY2?KEY

KEYCHATTERING1/KEY            ----- -----

KEYANALY1/KEY                 ----- -----
  +--> ?PR?TIMER1_STOP?INIT

KEYCHATTERING2/KEY            ----- -----

KEYANALY2/KEY                 ----- -----

ADC_PROC/MAIN                 00D5H 00D6H
  +--> ?PR?_ADC_START?INIT
  +--> ?PR?ADC_READ?INIT
  +--> ?PR?_ADC_CAL?MAIN
LX51 LINKER/LOCATER V4.41                                                             12/15/2021  14:01:25  PAGE 5


  +--> ?PR?_SEQUENCESORT?MAIN
  +--> ?CO?MAIN

_ADC_START/INIT               ----- -----

ADC_READ/INIT                 ----- -----

_ADC_CAL/MAIN                 00D7H 00DBH

_SEQUENCESORT/MAIN            00D7H 00DEH

EEPROM_PROC/UTIL              ----- -----
  +--> ?PR?_LFLASH_ERASE?UTIL
  +--> ?PR?_LFLASH_WRITE?UTIL
  +--> ?PR?_LFLASH_READ?UTIL

_LFLASH_ERASE/UTIL            ----- -----
  +--> ?PR?_CODEFLASH_ERASE?UTIL

_CODEFLASH_ERASE/UTIL         00D5H 00D8H

_LFLASH_WRITE/UTIL            00D5H 00F4H
  +--> ?PR?_CODEFLASH_WRITE?UTIL

_CODEFLASH_WRITE/UTIL         00F5H 0101H

*** NEW ROOT ****************

EXT10_INT/INT                 ----- -----

*** NEW ROOT ****************

RESV0_INT/INT                 ----- -----

*** NEW ROOT ****************

RESV1_INT/INT                 ----- -----

*** NEW ROOT ****************

EXT0_4_INT/INT                ----- -----

*** NEW ROOT ****************

EXT5_INT/INT                  ----- -----

*** NEW ROOT ****************

EXT6_INT/INT                  ----- -----

*** NEW ROOT ****************

I2C_INT/INT                   ----- -----

*** NEW ROOT ****************

ADC_WAKE_UP/INT               ----- -----

*** NEW ROOT ****************

TIMER0_OVER_FLOW_INT/INT      ----- -----

*** NEW ROOT ****************

TIMER0_INT/INT                ----- -----
LX51 LINKER/LOCATER V4.41                                                             12/15/2021  14:01:25  PAGE 6



*** NEW ROOT ****************

INT_TIMER2/INT                ----- -----
  +--> ?PR?DISP_PROC?DISP

DISP_PROC/DISP                ----- -----
  +--> ?CO?DISP
  +--> ?PR?DISPLAY_OFF?DISP
  +--> ?PR?KEY_PROC?KEY

?CO?DISP                      ----- -----

DISPLAY_OFF/DISP              ----- -----

KEY_PROC/KEY                  ----- -----
  +--> ?PR?KEYCHATTERING?KEY
  +--> ?PR?KEYANALY?KEY

KEYCHATTERING/KEY             ----- -----

KEYANALY/KEY                  ----- -----

*** NEW ROOT ****************

RESV2_INT/INT                 ----- -----

*** NEW ROOT ****************

EXT7_A_INT/INT                ----- -----

*** NEW ROOT ****************

ADC_INT/INT                   ----- -----

*** NEW ROOT ****************

SPI_INT/INT                   ----- -----

*** NEW ROOT ****************

WDT_INT/INT                   ----- -----

*** NEW ROOT ****************

INT_BIT/INT                   ----- -----

*** NEW ROOT ****************

RX_INT/UART                   ----- -----

*** NEW ROOT ****************

TX_INT/UART                   ----- -----



PUBLIC SYMBOLS OF MODULE:  .\OUT\HIFIL_CREAMT01 (?C_STARTUP)


      VALUE       CLASS    TYPE      PUBLIC SYMBOL NAME
      =================================================
      020000F9H   XDATA    BYTE      ?_CodeFlash_Read?BYTE
      020000F5H   XDATA    BYTE      ?_CodeFlash_Write?BYTE
      0100116BH   CODE     ---       ?C?CLDOPTR
LX51 LINKER/LOCATER V4.41                                                             12/15/2021  14:01:25  PAGE 7


      01001152H   CODE     ---       ?C?CLDPTR
      00000000H   NUMBER   ---       ?C?CODESEG
      01001198H   CODE     ---       ?C?CSTPTR
      010011AAH   CODE     ---       ?C?IILDX
      010011C0H   CODE     ---       ?C?ILDOPTR
      010011F8H   CODE     ---       ?C?ISTOPTR
      0100123BH   CODE     ---       ?C?MEMSET
      01001225H   CODE     ---       ?C?SLCMP
      00000000H   NUMBER   ---       ?C?XDATASEG
      01000DEDH   CODE     ---       ?C_START
      01000000H   CODE     NEAR LAB  ?C_STARTUP
      02000007H   XDATA    ---       _ADC
      01000800H   CODE     ---       _ADC_Cal
      0100111FH   CODE     ---       _ADC_start
      01000BC7H   CODE     ---       _CodeFlash_Erase
      01000D21H   CODE     ---       _CodeFlash_Read
      010005E8H   CODE     ---       _CodeFlash_Write
      0100110EH   CODE     ---       _delay_xms
      010010FCH   CODE     ---       _Lflash_erase
      01000E98H   CODE     ---       _Lflash_read
      01000F3AH   CODE     ---       _Lflash_write
      01000A16H   CODE     ---       _SequenceSort
*SFR* 000000E0H   DATA     BYTE      ACC
      02000011H   XDATA    ---       ADC_Buf
      020000ACH   XDATA    ---       ADC_Buf0
      020000C0H   XDATA    ---       ADC_Buf1
      0000003AH   IDATA    BYTE      ADC_CancelTimer
      00000035H   IDATA    WORD      ADC_CMPOCR
      00000010H   IDATA    BYTE      ADC_Counter
      0000000CH   IDATA    BYTE      ADC_Counters
      0000001EH   IDATA    BYTE      ADC_Index
      010010C2H   CODE     ---       ADC_init
      01000047H   CODE     ---       ADC_Int
      00000016H   IDATA    BYTE      ADC_Max_sampling
      00000037H   IDATA    BYTE      ADC_Min_cnt
      00000013H   IDATA    BYTE      ADC_Min_sampling
      01001295H   CONST    ---       ADC_MOTCURRENT_DIP_TB
      010012A1H   CONST    ---       ADC_MOTCURRENT_DIP_TB1
      00000014H   IDATA    WORD      ADC_OCRResult
      00000028H   IDATA    WORD      ADC_OCRSum
      010002A8H   CODE     ---       ADC_Proc
      01001034H   CODE     ---       ADC_read
      0000001FH   IDATA    WORD      ADC_TGOCR
      01000040H   CODE     ---       ADC_WAKE_UP
*SFR* 0000009DH   DATA     BYTE      ADCCRH
*SFR* 0000009CH   DATA     BYTE      ADCCRL
*SFR* 0000009FH   DATA     BYTE      ADCDRH
*SFR* 0000009EH   DATA     BYTE      ADCDRL
*SFR* 000000F7H   DATA     BYTE      ADWCRH
*SFR* 000000F6H   DATA     BYTE      ADWCRL
*SFR* 000000DDH   DATA     BYTE      ADWIFRH
*SFR* 000000DCH   DATA     BYTE      ADWIFRL
*SFR* 000000F2H   DATA     BYTE      ADWRCR0
*SFR* 000000F3H   DATA     BYTE      ADWRCR1
*SFR* 000000F4H   DATA     BYTE      ADWRCR2
*SFR* 000000F5H   DATA     BYTE      ADWRCR3
      0000001AH   IDATA    WORD      AUTO_Off_Timer
*SFR* 000000F0H   DATA     BYTE      B
*SFR* 0000008CH   DATA     BYTE      BITCNT
*SFR* 0000008BH   DATA     BYTE      BITCR
*SFR* 00000097H   DATA     BYTE      BUZCR
*SFR* 0000008FH   DATA     BYTE      BUZDR
      00000025H   IDATA    BYTE      Clean_Index
      00000038H   IDATA    BYTE      Clean_KeyTimer
      0000002BH   IDATA    WORD      Clean_Timer
LX51 LINKER/LOCATER V4.41                                                             12/15/2021  14:01:25  PAGE 8


      0100112EH   CODE     ---       Clock_init
      0100004EH   CONST    ---       d_LEDSPEED
      01001281H   CONST    ---       d_TARGETPWM1
      0100128BH   CONST    ---       d_TARGETPWM2
      0000000DH   IDATA    WORD      DATA16
      00000027H   IDATA    BYTE      DATA_H
      0000002AH   IDATA    BYTE      DATA_L
      00000034H   IDATA    BYTE      DigitRotate
      00000026H   IDATA    BYTE      Dipkeyin
      00000030H   IDATA    BYTE      Disp_CleanTimer
      00000008H   IDATA    BYTE      Disp_ModeTimer
      01000B05H   CODE     ---       Disp_Proc
      0100114AH   CODE     ---       Display_off
*SFR* 00000083H   DATA     BYTE      DPH
*SFR* 00000085H   DATA     BYTE      DPH1
*SFR* 00000082H   DATA     BYTE      DPL
*SFR* 00000084H   DATA     BYTE      DPL1
      01000E44H   CODE     ---       EEPROM_Proc
*SFR* 000000C0H   DATA     BYTE      EIFLAG0
*SFR* 000000B0H   DATA     BYTE      EIFLAG1
*SFR* 000000A5H   DATA     BYTE      EIPOL0H
*SFR* 000000A4H   DATA     BYTE      EIPOL0L
*SFR* 000000A6H   DATA     BYTE      EIPOL1
*SFR* 000000A7H   DATA     BYTE      EIPOL2
*SFR* 000000A2H   DATA     BYTE      EO
      01000036H   CODE     ---       EXT0_4_Int
      01000022H   CODE     ---       EXT10_Int
      0100003AH   CODE     ---       EXT5_Int
      0100003EH   CODE     ---       EXT6_Int
      01000046H   CODE     ---       EXT7_A_Int
*SFR* 000000FDH   DATA     BYTE      FIDR
      0000003DH   IDATA    BYTE      flag00
      0000003EH   IDATA    BYTE      flag01
      00000009H   IDATA    BYTE      flag02
      0000000AH   IDATA    BYTE      flag03
      0000000BH   IDATA    BYTE      flag04
      00000019H   IDATA    BYTE      flash_status
*SFR* 000000FEH   DATA     BYTE      FMCR
*SFR* 000000FAH   DATA     BYTE      FSADRH
*SFR* 000000FCH   DATA     BYTE      FSADRL
*SFR* 000000FBH   DATA     BYTE      FSADRM
      0200000DH   XDATA    BYTE      hour
      0100003FH   CODE     ---       I2C_Int
*SFR* 000000E9H   DATA     BYTE      I2CCR
*SFR* 000000ECH   DATA     BYTE      I2CDR
*SFR* 000000EBH   DATA     BYTE      I2CSAR0
*SFR* 000000F1H   DATA     BYTE      I2CSAR1
*SFR* 000000EFH   DATA     BYTE      I2CSCHR
*SFR* 000000EEH   DATA     BYTE      I2CSCLR
*SFR* 000000EDH   DATA     BYTE      I2CSDHR
*SFR* 000000EAH   DATA     BYTE      I2CSR
*SFR* 000000A8H   DATA     BYTE      IE
*SFR* 000000A9H   DATA     BYTE      IE1
*SFR* 000000AAH   DATA     BYTE      IE2
*SFR* 000000ABH   DATA     BYTE      IE3
*SFR* 000000A0H   DATA     BYTE      IIFLAG
      0000003CH   IDATA    BYTE      Index
      0100004AH   CODE     ---       INT_BIT
      01000EEBH   CODE     ---       INT_Timer2
*SFR* 000000B8H   DATA     BYTE      IP
*SFR* 000000F8H   DATA     BYTE      IP1
      00000024H   IDATA    BYTE      IS_Checker
      010007F5H   CODE     ---       Key_Proc
      010010E9H   CODE     ---       Key_Proc1
      01000D92H   CODE     ---       KeyAnaly
LX51 LINKER/LOCATER V4.41                                                             12/15/2021  14:01:25  PAGE 9


      010000B6H   CODE     ---       KeyAnaly1
      0100107DH   CODE     ---       KeyAnaly2
      01000FBDH   CODE     ---       KeyChattering
      01001059H   CODE     ---       KeyChattering1
      010010A1H   CODE     ---       KeyChattering2
      0000001DH   IDATA    BYTE      keyin
      0000002DH   IDATA    BYTE      keyin1
      0000002EH   IDATA    BYTE      keyin2
*SFR* 00000086H   DATA     BYTE      LVICR
*SFR* 000000D8H   DATA     BYTE      LVRCR
      01000DEDH   CODE     ---       main
      0100047AH   CODE     ---       Main_Proc
      02000010H   XDATA    BYTE      min
      00000017H   IDATA    BYTE      Mode_Key
      00000023H   IDATA    BYTE      Mode_Key_old
      00000018H   IDATA    BYTE      Mode_KeyTimer
      00000033H   IDATA    BYTE      Motor_RPM
      0000000FH   IDATA    BYTE      Motor_RPM_old
      02000009H   XDATA    BYTE      msec
      02000000H   XDATA    BYTE      msec10
      0200000CH   XDATA    BYTE      msec100
      0200007FH   XDATA    BYTE      msec5
*SFR* 000000C8H   DATA     BYTE      OSCCR
*SFR* 00000080H   DATA     BYTE      P0
*SFR* 00000080H   DATA     BIT       P00
*SFR* 00000080H.1 DATA     BIT       P01
*SFR* 00000080H.2 DATA     BIT       P02
*SFR* 00000080H.3 DATA     BIT       P03
*SFR* 000000DEH   DATA     BYTE      P03DB
*SFR* 00000080H.4 DATA     BIT       P04
*SFR* 00000080H.5 DATA     BIT       P05
*SFR* 00000080H.6 DATA     BIT       P06
*SFR* 00000080H.7 DATA     BIT       P07
*SFR* 000000D3H   DATA     BYTE      P0FSR
*SFR* 000000A1H   DATA     BYTE      P0IO
*SFR* 00000091H   DATA     BYTE      P0OD
*SFR* 000000ACH   DATA     BYTE      P0PU
*SFR* 00000088H   DATA     BYTE      P1
*SFR* 00000088H   DATA     BIT       P10
*SFR* 00000088H.1 DATA     BIT       P11
*SFR* 00000088H.2 DATA     BIT       P12
*SFR* 000000DFH   DATA     BYTE      P12DB
*SFR* 00000088H.3 DATA     BIT       P13
*SFR* 00000088H.4 DATA     BIT       P14
*SFR* 00000088H.5 DATA     BIT       P15
*SFR* 00000088H.6 DATA     BIT       P16
*SFR* 00000088H.7 DATA     BIT       P17
*SFR* 000000D5H   DATA     BYTE      P1FSRH
*SFR* 000000D4H   DATA     BYTE      P1FSRL
*SFR* 000000B1H   DATA     BYTE      P1IO
*SFR* 00000092H   DATA     BYTE      P1OD
*SFR* 000000ADH   DATA     BYTE      P1PU
*SFR* 00000090H   DATA     BYTE      P2
*SFR* 00000090H   DATA     BIT       P20
*SFR* 00000090H.1 DATA     BIT       P21
*SFR* 00000090H.2 DATA     BIT       P22
*SFR* 00000090H.3 DATA     BIT       P23
*SFR* 00000090H.4 DATA     BIT       P24
*SFR* 00000090H.5 DATA     BIT       P25
*SFR* 00000090H.6 DATA     BIT       P26
*SFR* 00000090H.7 DATA     BIT       P27
*SFR* 000000D6H   DATA     BYTE      P2FSR
*SFR* 000000B9H   DATA     BYTE      P2IO
*SFR* 00000093H   DATA     BYTE      P2OD
*SFR* 000000AEH   DATA     BYTE      P2PU
LX51 LINKER/LOCATER V4.41                                                             12/15/2021  14:01:25  PAGE 10


*SFR* 00000098H   DATA     BYTE      P3
*SFR* 00000098H   DATA     BIT       P30
*SFR* 00000098H.1 DATA     BIT       P31
*SFR* 00000098H.2 DATA     BIT       P32
*SFR* 00000098H.3 DATA     BIT       P33
*SFR* 00000098H.4 DATA     BIT       P34
*SFR* 00000098H.5 DATA     BIT       P35
*SFR* 00000098H.6 DATA     BIT       P36
*SFR* 00000098H.7 DATA     BIT       P37
*SFR* 000000D7H   DATA     BYTE      P3FSR
*SFR* 000000C1H   DATA     BYTE      P3IO
*SFR* 00000094H   DATA     BYTE      P3OD
*SFR* 000000AFH   DATA     BYTE      P3PU
*SFR* 00000087H   DATA     BYTE      PCON
      01000F7FH   CODE     ---       Port_init
*SFR* 000000A0H   DATA     BYTE      PPAGE_SFR
*SFR* 000000D0H   DATA     BYTE      PSW
      0100072AH   CODE     ---       Ram_init
      02000055H   XDATA    ---       Read_Data
      0100002AH   CODE     ---       RESV0_Int
      01000032H   CODE     ---       RESV1_Int
      01000042H   CODE     ---       RESV2_Int
*SFR* 000000E8H   DATA     BYTE      RSTFR
      0200008AH   XDATA    BYTE      RX_CHECKSUM
      02000002H   XDATA    BYTE      RX_COMMAND
      02000006H   XDATA    BYTE      RX_DATA
      02000053H   XDATA    BYTE      RX_DATA1
      02000001H   XDATA    BYTE      RX_DATA_counter
      01000C75H   CODE     ---       RX_Int
      0200000FH   XDATA    BYTE      RX_TEMP
      0200000EH   XDATA    BYTE      RX_Watchdog
      02000075H   XDATA    ---       RXCOMM_BUFF
*SFR* 0000008AH   DATA     BYTE      SCCR
      0200000BH   XDATA    BYTE      sec
      02000005H   XDATA    BYTE      sec05
*SFR* 00000081H   DATA     BYTE      SP
      01000048H   CODE     ---       SPI_Int
*SFR* 000000B5H   DATA     BYTE      SPICR
*SFR* 000000B6H   DATA     BYTE      SPIDR
*SFR* 000000B7H   DATA     BYTE      SPISR
      0000001CH   IDATA    BYTE      Start_DlyTimer
      00000039H   IDATA    BYTE      System_Error
*SFR* 000000B4H   DATA     BYTE      T0CDR
*SFR* 000000B3H   DATA     BYTE      T0CNT
*SFR* 000000B2H   DATA     BYTE      T0CR
*SFR* 000000B4H   DATA     BYTE      T0DR
*SFR* 000000BCH   DATA     WORD      T1ADR
*SFR* 000000BDH   DATA     BYTE      T1ADRH
*SFR* 000000BCH   DATA     BYTE      T1ADRL
*SFR* 000000BEH   DATA     WORD      T1BDR
*SFR* 000000BFH   DATA     BYTE      T1BDRH
*SFR* 000000BEH   DATA     BYTE      T1BDRL
*SFR* 000000BBH   DATA     BYTE      T1CRH
*SFR* 000000BAH   DATA     BYTE      T1CRL
*SFR* 000000C4H   DATA     WORD      T2ADR
*SFR* 000000C5H   DATA     BYTE      T2ADRH
*SFR* 000000C4H   DATA     BYTE      T2ADRL
*SFR* 000000C6H   DATA     WORD      T2BDR
*SFR* 000000C7H   DATA     BYTE      T2BDRH
*SFR* 000000C6H   DATA     BYTE      T2BDRL
*SFR* 000000C3H   DATA     BYTE      T2CRH
*SFR* 000000C2H   DATA     BYTE      T2CRL
      00000031H   IDATA    WORD      TargetPWM
      0100006EH   CODE     ---       Timer0_init
      01000917H   CODE     ---       TIMER0_Int
LX51 LINKER/LOCATER V4.41                                                             12/15/2021  14:01:25  PAGE 11


      01000041H   CODE     ---       TIMER0_OVER_FLOW_Int
      01000006H   CODE     ---       Timer1_init
      0100009EH   CODE     ---       timer1_start
      0100113DH   CODE     ---       timer1_stop
      010010D6H   CODE     ---       Timer2_init
      0200008BH   XDATA    BYTE      TX_CHECKSUM
      02000004H   XDATA    BYTE      TX_COMMAND
      02000054H   XDATA    BYTE      TX_DATA1
      02000003H   XDATA    BYTE      TX_DATA_counter
      020000D4H   XDATA    BYTE      TX_DELAY
      01001000H   CODE     ---       TX_Int
      02000080H   XDATA    ---       TXCOMM_BUFF
      0200000AH   XDATA    BYTE      UART_flag
*SFR* 000000E6H   DATA     BYTE      UARTBD
*SFR* 000000E2H   DATA     BYTE      UARTCR1
*SFR* 000000E3H   DATA     BYTE      UARTCR2
*SFR* 000000E4H   DATA     BYTE      UARTCR3
*SFR* 000000E7H   DATA     BYTE      UARTDR
*SFR* 000000E5H   DATA     BYTE      UARTST
      0000002FH   IDATA    BYTE      Wchact
      00000011H   IDATA    BYTE      Wchact1
      00000012H   IDATA    BYTE      Wchact2
      0100002EH   CODE     ---       WDT_clear
      01000026H   CODE     ---       WDT_disable
      0100001EH   CODE     ---       WDT_enable
      01000FF6H   CODE     ---       WDT_init
      01000049H   CODE     ---       WDT_Int
*SFR* 0000008EH   DATA     BYTE      WDTCNT
*SFR* 0000008DH   DATA     BYTE      WDTCR
*SFR* 0000008EH   DATA     BYTE      WDTDR
      0000003BH   IDATA    BYTE      Wkeyin
      00000021H   IDATA    BYTE      Wkeyin1
      00000022H   IDATA    BYTE      Wkeyin2
      0200008CH   XDATA    ---       Write_Data
*SFR* 00000089H   DATA     BYTE      WTCNT
*SFR* 00000096H   DATA     BYTE      WTCR
*SFR* 00000089H   DATA     BYTE      WTDR



SYMBOL TABLE OF MODULE:  .\OUT\HIFIL_CREAMT01 (?C_STARTUP)

      VALUE       REP       CLASS    TYPE      SYMBOL NAME
      ====================================================
      ---         MODULE    ---      ---       ?C_STARTUP
      01000000H   PUBLIC    CODE     NEAR LAB  ?C_STARTUP
      000000E0H   SFRSYM    DATA     BYTE      ACC
      000000F0H   SFRSYM    DATA     BYTE      B
      00000083H   SFRSYM    DATA     BYTE      DPH
      00000082H   SFRSYM    DATA     BYTE      DPL
      000000A0H   SFRSYM    DATA     BYTE      PPAGE_SFR
      00000081H   SFRSYM    DATA     BYTE      SP
      00000000H   SYMBOL    NUMBER   ---       IBPSTACK
      00000100H   SYMBOL    NUMBER   ---       IBPSTACKTOP
      00000100H   SYMBOL    NUMBER   ---       IDATALEN
      0100126AH   SYMBOL    CODE     NEAR LAB  IDATALOOP
      00000000H   SYMBOL    NUMBER   ---       PBPSTACK
      00000100H   SYMBOL    NUMBER   ---       PBPSTACKTOP
      00000000H   SYMBOL    NUMBER   ---       PDATALEN
      00000000H   SYMBOL    NUMBER   ---       PDATASTART
      00000000H   SYMBOL    NUMBER   ---       PPAGE
      00000000H   SYMBOL    NUMBER   ---       PPAGEENABLE
      01001267H   SYMBOL    CODE     NEAR LAB  STARTUP1
      00000000H   SYMBOL    NUMBER   ---       XBPSTACK
      00010000H   SYMBOL    NUMBER   ---       XBPSTACKTOP
LX51 LINKER/LOCATER V4.41                                                             12/15/2021  14:01:25  PAGE 12


      000001FFH   SYMBOL    NUMBER   ---       XDATALEN
      01001275H   SYMBOL    CODE     NEAR LAB  XDATALOOP
      00000000H   SYMBOL    NUMBER   ---       XDATASTART

      01000000H   BLOCK     CODE     NEAR LAB  LVL=0
      01000000H   LINE      CODE     ---       #126
      ---         BLOCKEND  ---      ---       LVL=0

      01001267H   BLOCK     CODE     NEAR LAB  LVL=0
      01001267H   LINE      CODE     ---       #133
      01001269H   LINE      CODE     ---       #134
      0100126AH   LINE      CODE     ---       #135
      0100126BH   LINE      CODE     ---       #136
      0100126DH   LINE      CODE     ---       #140
      01001270H   LINE      CODE     ---       #141
      01001272H   LINE      CODE     ---       #143
      01001274H   LINE      CODE     ---       #147
      01001275H   LINE      CODE     ---       #148
      01001276H   LINE      CODE     ---       #149
      01001277H   LINE      CODE     ---       #150
      01001279H   LINE      CODE     ---       #151
      0100127BH   LINE      CODE     ---       #185
      0100127EH   LINE      CODE     ---       #196
      ---         BLOCKEND  ---      ---       LVL=0

      ---         MODULE    ---      ---       MAIN
      0000003EH   PUBLIC    IDATA    BYTE      flag01
      020000D4H   PUBLIC    XDATA    BYTE      TX_DELAY
      0000003DH   PUBLIC    IDATA    BYTE      flag00
      0000003CH   PUBLIC    IDATA    BYTE      Index
      0000003BH   PUBLIC    IDATA    BYTE      Wkeyin
      020000C0H   PUBLIC    XDATA    ---       ADC_Buf1
      0000003AH   PUBLIC    IDATA    BYTE      ADC_CancelTimer
      020000ACH   PUBLIC    XDATA    ---       ADC_Buf0
      00000039H   PUBLIC    IDATA    BYTE      System_Error
      00000038H   PUBLIC    IDATA    BYTE      Clean_KeyTimer
      00000037H   PUBLIC    IDATA    BYTE      ADC_Min_cnt
      00000035H   PUBLIC    IDATA    WORD      ADC_CMPOCR
      0200008CH   PUBLIC    XDATA    ---       Write_Data
      00000034H   PUBLIC    IDATA    BYTE      DigitRotate
      00000033H   PUBLIC    IDATA    BYTE      Motor_RPM
      0200008BH   PUBLIC    XDATA    BYTE      TX_CHECKSUM
      0200008AH   PUBLIC    XDATA    BYTE      RX_CHECKSUM
      00000031H   PUBLIC    IDATA    WORD      TargetPWM
      02000080H   PUBLIC    XDATA    ---       TXCOMM_BUFF
      0200007FH   PUBLIC    XDATA    BYTE      msec5
      00000030H   PUBLIC    IDATA    BYTE      Disp_CleanTimer
      0000002FH   PUBLIC    IDATA    BYTE      Wchact
      02000075H   PUBLIC    XDATA    ---       RXCOMM_BUFF
      02000055H   PUBLIC    XDATA    ---       Read_Data
      02000054H   PUBLIC    XDATA    BYTE      TX_DATA1
      02000053H   PUBLIC    XDATA    BYTE      RX_DATA1
      0000002EH   PUBLIC    IDATA    BYTE      keyin2
      0000002DH   PUBLIC    IDATA    BYTE      keyin1
      0000002BH   PUBLIC    IDATA    WORD      Clean_Timer
      02000011H   PUBLIC    XDATA    ---       ADC_Buf
      0000002AH   PUBLIC    IDATA    BYTE      DATA_L
      00000028H   PUBLIC    IDATA    WORD      ADC_OCRSum
      02000010H   PUBLIC    XDATA    BYTE      min
      00000027H   PUBLIC    IDATA    BYTE      DATA_H
      00000026H   PUBLIC    IDATA    BYTE      Dipkeyin
      0200000FH   PUBLIC    XDATA    BYTE      RX_TEMP
      00000025H   PUBLIC    IDATA    BYTE      Clean_Index
      0200000EH   PUBLIC    XDATA    BYTE      RX_Watchdog
      0200000DH   PUBLIC    XDATA    BYTE      hour
LX51 LINKER/LOCATER V4.41                                                             12/15/2021  14:01:25  PAGE 13


      0200000CH   PUBLIC    XDATA    BYTE      msec100
      0200000BH   PUBLIC    XDATA    BYTE      sec
      0200000AH   PUBLIC    XDATA    BYTE      UART_flag
      00000024H   PUBLIC    IDATA    BYTE      IS_Checker
      00000023H   PUBLIC    IDATA    BYTE      Mode_Key_old
      00000022H   PUBLIC    IDATA    BYTE      Wkeyin2
      00000021H   PUBLIC    IDATA    BYTE      Wkeyin1
      0000001FH   PUBLIC    IDATA    WORD      ADC_TGOCR
      02000009H   PUBLIC    XDATA    BYTE      msec
      02000007H   PUBLIC    XDATA    ---       _ADC
      02000006H   PUBLIC    XDATA    BYTE      RX_DATA
      0000001EH   PUBLIC    IDATA    BYTE      ADC_Index
      0000001DH   PUBLIC    IDATA    BYTE      keyin
      02000005H   PUBLIC    XDATA    BYTE      sec05
      0000001CH   PUBLIC    IDATA    BYTE      Start_DlyTimer
      0000001AH   PUBLIC    IDATA    WORD      AUTO_Off_Timer
      00000019H   PUBLIC    IDATA    BYTE      flash_status
      00000018H   PUBLIC    IDATA    BYTE      Mode_KeyTimer
      00000017H   PUBLIC    IDATA    BYTE      Mode_Key
      00000016H   PUBLIC    IDATA    BYTE      ADC_Max_sampling
      00000014H   PUBLIC    IDATA    WORD      ADC_OCRResult
      00000013H   PUBLIC    IDATA    BYTE      ADC_Min_sampling
      00000012H   PUBLIC    IDATA    BYTE      Wchact2
      00000011H   PUBLIC    IDATA    BYTE      Wchact1
      02000004H   PUBLIC    XDATA    BYTE      TX_COMMAND
      00000010H   PUBLIC    IDATA    BYTE      ADC_Counter
      02000003H   PUBLIC    XDATA    BYTE      TX_DATA_counter
      02000002H   PUBLIC    XDATA    BYTE      RX_COMMAND
      02000001H   PUBLIC    XDATA    BYTE      RX_DATA_counter
      02000000H   PUBLIC    XDATA    BYTE      msec10
      0000000FH   PUBLIC    IDATA    BYTE      Motor_RPM_old
      0000000DH   PUBLIC    IDATA    WORD      DATA16
      0000000CH   PUBLIC    IDATA    BYTE      ADC_Counters
      0000000BH   PUBLIC    IDATA    BYTE      flag04
      0000000AH   PUBLIC    IDATA    BYTE      flag03
      00000009H   PUBLIC    IDATA    BYTE      flag02
      00000008H   PUBLIC    IDATA    BYTE      Disp_ModeTimer
      010012A1H   PUBLIC    CONST    ---       ADC_MOTCURRENT_DIP_TB1
      01001295H   PUBLIC    CONST    ---       ADC_MOTCURRENT_DIP_TB
      0100128BH   PUBLIC    CONST    ---       d_TARGETPWM2
      01001281H   PUBLIC    CONST    ---       d_TARGETPWM1
      0100110EH   PUBLIC    CODE     ---       _delay_xms
      010002A8H   PUBLIC    CODE     ---       ADC_Proc
      01000800H   PUBLIC    CODE     ---       _ADC_Cal
      01000A16H   PUBLIC    CODE     ---       _SequenceSort
      0100047AH   PUBLIC    CODE     ---       Main_Proc
      01000DEDH   PUBLIC    CODE     ---       main
      00000080H   SFRSYM    DATA     BYTE      P0
      00000088H   SFRSYM    DATA     BYTE      P1
      00000086H   SFRSYM    DATA     BYTE      LVICR
      00000090H   SFRSYM    DATA     BYTE      P2
      000000B5H   SFRSYM    DATA     BYTE      SPICR
      00000098H   SFRSYM    DATA     BYTE      P3
      000000B6H   SFRSYM    DATA     BYTE      SPIDR
      000000E2H   SFRSYM    DATA     BYTE      UARTCR1
      000000E3H   SFRSYM    DATA     BYTE      UARTCR2
      0000008DH   SFRSYM    DATA     BYTE      WDTCR
      000000E4H   SFRSYM    DATA     BYTE      UARTCR3
      0000008EH   SFRSYM    DATA     BYTE      WDTDR
      000000DDH   SFRSYM    DATA     BYTE      ADWIFRH
      00000097H   SFRSYM    DATA     BYTE      BUZCR
      0000008FH   SFRSYM    DATA     BYTE      BUZDR
      000000D8H   SFRSYM    DATA     BYTE      LVRCR
      000000DCH   SFRSYM    DATA     BYTE      ADWIFRL
      00000085H   SFRSYM    DATA     BYTE      DPH1
LX51 LINKER/LOCATER V4.41                                                             12/15/2021  14:01:25  PAGE 14


      000000A8H   SFRSYM    DATA     BYTE      IE
      00000084H   SFRSYM    DATA     BYTE      DPL1
      00000089H   SFRSYM    DATA     BYTE      WTCNT
      000000B7H   SFRSYM    DATA     BYTE      SPISR
      000000E8H   SFRSYM    DATA     BYTE      RSTFR
      000000A2H   SFRSYM    DATA     BYTE      EO
      00000091H   SFRSYM    DATA     BYTE      P0OD
      00000092H   SFRSYM    DATA     BYTE      P1OD
      00000093H   SFRSYM    DATA     BYTE      P2OD
      00000094H   SFRSYM    DATA     BYTE      P3OD
      000000B8H   SFRSYM    DATA     BYTE      IP
      000000A1H   SFRSYM    DATA     BYTE      P0IO
      000000B2H   SFRSYM    DATA     BYTE      T0CR
      000000B1H   SFRSYM    DATA     BYTE      P1IO
      000000B4H   SFRSYM    DATA     BYTE      T0DR
      000000B9H   SFRSYM    DATA     BYTE      P2IO
      000000C1H   SFRSYM    DATA     BYTE      P3IO
      00000081H   SFRSYM    DATA     BYTE      SP
      000000FDH   SFRSYM    DATA     BYTE      FIDR
      000000BDH   SFRSYM    DATA     BYTE      T1ADRH
      000000ACH   SFRSYM    DATA     BYTE      P0PU
      0000009DH   SFRSYM    DATA     BYTE      ADCCRH
      000000C5H   SFRSYM    DATA     BYTE      T2ADRH
      000000BFH   SFRSYM    DATA     BYTE      T1BDRH
      000000ADH   SFRSYM    DATA     BYTE      P1PU
      0000009FH   SFRSYM    DATA     BYTE      ADCDRH
      000000C7H   SFRSYM    DATA     BYTE      T2BDRH
      000000AEH   SFRSYM    DATA     BYTE      P2PU
      000000FEH   SFRSYM    DATA     BYTE      FMCR
      000000AFH   SFRSYM    DATA     BYTE      P3PU
      000000BCH   SFRSYM    DATA     BYTE      T1ADRL
      0000009CH   SFRSYM    DATA     BYTE      ADCCRL
      000000C4H   SFRSYM    DATA     BYTE      T2ADRL
      000000BEH   SFRSYM    DATA     BYTE      T1BDRL
      0000009EH   SFRSYM    DATA     BYTE      ADCDRL
      000000C6H   SFRSYM    DATA     BYTE      T2BDRL
      0000008AH   SFRSYM    DATA     BYTE      SCCR
      000000A6H   SFRSYM    DATA     BYTE      EIPOL1
      000000A7H   SFRSYM    DATA     BYTE      EIPOL2
      000000A0H   SFRSYM    DATA     BYTE      IIFLAG
      00000080H   SFRSYM    DATA     BIT       P00
      00000087H   SFRSYM    DATA     BYTE      PCON
      00000088H   SFRSYM    DATA     BIT       P10
      00000080H.1 SFRSYM    DATA     BIT       P01
      00000090H   SFRSYM    DATA     BIT       P20
      00000088H.1 SFRSYM    DATA     BIT       P11
      00000080H.2 SFRSYM    DATA     BIT       P02
      00000098H   SFRSYM    DATA     BIT       P30
      00000090H.1 SFRSYM    DATA     BIT       P21
      00000088H.2 SFRSYM    DATA     BIT       P12
      00000080H.3 SFRSYM    DATA     BIT       P03
      00000098H.1 SFRSYM    DATA     BIT       P31
      00000090H.2 SFRSYM    DATA     BIT       P22
      00000088H.3 SFRSYM    DATA     BIT       P13
      00000080H.4 SFRSYM    DATA     BIT       P04
      00000098H.2 SFRSYM    DATA     BIT       P32
      00000090H.3 SFRSYM    DATA     BIT       P23
      00000088H.4 SFRSYM    DATA     BIT       P14
      00000080H.5 SFRSYM    DATA     BIT       P05
      000000D5H   SFRSYM    DATA     BYTE      P1FSRH
      00000098H.3 SFRSYM    DATA     BIT       P33
      00000090H.4 SFRSYM    DATA     BIT       P24
      00000088H.5 SFRSYM    DATA     BIT       P15
      00000080H.6 SFRSYM    DATA     BIT       P06
      00000098H.4 SFRSYM    DATA     BIT       P34
LX51 LINKER/LOCATER V4.41                                                             12/15/2021  14:01:25  PAGE 15


      00000090H.5 SFRSYM    DATA     BIT       P25
      00000088H.6 SFRSYM    DATA     BIT       P16
      00000080H.7 SFRSYM    DATA     BIT       P07
      00000098H.5 SFRSYM    DATA     BIT       P35
      00000090H.6 SFRSYM    DATA     BIT       P26
      00000088H.7 SFRSYM    DATA     BIT       P17
      00000098H.6 SFRSYM    DATA     BIT       P36
      00000090H.7 SFRSYM    DATA     BIT       P27
      000000FAH   SFRSYM    DATA     BYTE      FSADRH
      000000D4H   SFRSYM    DATA     BYTE      P1FSRL
      00000098H.7 SFRSYM    DATA     BIT       P37
      000000DFH   SFRSYM    DATA     BYTE      P12DB
      000000DEH   SFRSYM    DATA     BYTE      P03DB
      000000F7H   SFRSYM    DATA     BYTE      ADWCRH
      000000FCH   SFRSYM    DATA     BYTE      FSADRL
      000000FBH   SFRSYM    DATA     BYTE      FSADRM
      000000F6H   SFRSYM    DATA     BYTE      ADWCRL
      000000A9H   SFRSYM    DATA     BYTE      IE1
      000000AAH   SFRSYM    DATA     BYTE      IE2
      000000F0H   SFRSYM    DATA     BYTE      B
      00000096H   SFRSYM    DATA     BYTE      WTCR
      000000ABH   SFRSYM    DATA     BYTE      IE3
      00000089H   SFRSYM    DATA     BYTE      WTDR
      000000E6H   SFRSYM    DATA     BYTE      UARTBD
      0000008CH   SFRSYM    DATA     BYTE      BITCNT
      000000E0H   SFRSYM    DATA     BYTE      ACC
      000000F8H   SFRSYM    DATA     BYTE      IP1
      000000E9H   SFRSYM    DATA     BYTE      I2CCR
      000000E7H   SFRSYM    DATA     BYTE      UARTDR
      000000ECH   SFRSYM    DATA     BYTE      I2CDR
      000000EBH   SFRSYM    DATA     BYTE      I2CSAR0
      0000008EH   SFRSYM    DATA     BYTE      WDTCNT
      000000F1H   SFRSYM    DATA     BYTE      I2CSAR1
      000000C0H   SFRSYM    DATA     BYTE      EIFLAG0
      000000B0H   SFRSYM    DATA     BYTE      EIFLAG1
      00000083H   SFRSYM    DATA     BYTE      DPH
      000000BCH   SFRSYM    DATA     WORD      T1ADR
      000000C4H   SFRSYM    DATA     WORD      T2ADR
      000000BEH   SFRSYM    DATA     WORD      T1BDR
      000000B4H   SFRSYM    DATA     BYTE      T0CDR
      000000C6H   SFRSYM    DATA     WORD      T2BDR
      00000082H   SFRSYM    DATA     BYTE      DPL
      000000BBH   SFRSYM    DATA     BYTE      T1CRH
      000000EAH   SFRSYM    DATA     BYTE      I2CSR
      000000C3H   SFRSYM    DATA     BYTE      T2CRH
      000000E5H   SFRSYM    DATA     BYTE      UARTST
      000000BAH   SFRSYM    DATA     BYTE      T1CRL
      000000C2H   SFRSYM    DATA     BYTE      T2CRL
      000000B3H   SFRSYM    DATA     BYTE      T0CNT
      000000D3H   SFRSYM    DATA     BYTE      P0FSR
      000000D6H   SFRSYM    DATA     BYTE      P2FSR
      000000D7H   SFRSYM    DATA     BYTE      P3FSR
      000000EFH   SFRSYM    DATA     BYTE      I2CSCHR
      000000EDH   SFRSYM    DATA     BYTE      I2CSDHR
      000000A5H   SFRSYM    DATA     BYTE      EIPOL0H
      000000EEH   SFRSYM    DATA     BYTE      I2CSCLR
      000000F2H   SFRSYM    DATA     BYTE      ADWRCR0
      0000008BH   SFRSYM    DATA     BYTE      BITCR
      000000F3H   SFRSYM    DATA     BYTE      ADWRCR1
      000000F4H   SFRSYM    DATA     BYTE      ADWRCR2
      000000A4H   SFRSYM    DATA     BYTE      EIPOL0L
      000000F5H   SFRSYM    DATA     BYTE      ADWRCR3
      000000D0H   SFRSYM    DATA     BYTE      PSW
      000000C8H   SFRSYM    DATA     BYTE      OSCCR

LX51 LINKER/LOCATER V4.41                                                             12/15/2021  14:01:25  PAGE 16


      01000DEDH   BLOCK     CODE     ---       LVL=0
      01000DEDH   LINE      CODE     ---       #45
      01000DEDH   LINE      CODE     ---       #46
      01000DEDH   LINE      CODE     ---       #47
      01000DF0H   LINE      CODE     ---       #48
      01000DF3H   LINE      CODE     ---       #49
      01000DF6H   LINE      CODE     ---       #50
      01000DF9H   LINE      CODE     ---       #51
      01000DFCH   LINE      CODE     ---       #52
      01000DFFH   LINE      CODE     ---       #54
      01000E02H   LINE      CODE     ---       #55
      01000E05H   LINE      CODE     ---       #56
      01000E08H   LINE      CODE     ---       #57
      01000E0BH   LINE      CODE     ---       #58
      01000E0EH   LINE      CODE     ---       #62
      01000E11H   LINE      CODE     ---       #63
      01000E14H   LINE      CODE     ---       #65
      01000E14H   LINE      CODE     ---       #66
      01000E14H   LINE      CODE     ---       #67
      01000E1AH   LINE      CODE     ---       #68
      01000E1AH   LINE      CODE     ---       #69
      01000E1EH   LINE      CODE     ---       #70
      01000E26H   LINE      CODE     ---       #71
      01000E26H   LINE      CODE     ---       #72
      01000E26H   LINE      CODE     ---       #73
      01000E29H   LINE      CODE     ---       #74
      01000E2CH   LINE      CODE     ---       #75
      01000E2EH   LINE      CODE     ---       #76
      01000E2EH   LINE      CODE     ---       #77
      01000E31H   LINE      CODE     ---       #78
      01000E34H   LINE      CODE     ---       #79
      01000E37H   LINE      CODE     ---       #81
      01000E3AH   LINE      CODE     ---       #83
      01000E3EH   LINE      CODE     ---       #84
      01000E3EH   LINE      CODE     ---       #85
      01000E42H   LINE      CODE     ---       #86
      ---         BLOCKEND  ---      ---       LVL=0

      0100047AH   BLOCK     CODE     ---       LVL=0
      0100047AH   LINE      CODE     ---       #113
      0100047AH   LINE      CODE     ---       #114
      0100047AH   LINE      CODE     ---       #115
      0100048DH   LINE      CODE     ---       #117
      010004A7H   LINE      CODE     ---       #118
      010004A7H   LINE      CODE     ---       #119
      010004AAH   LINE      CODE     ---       #120
      010004ACH   LINE      CODE     ---       #121
      010004B2H   LINE      CODE     ---       #122
      010004B7H   LINE      CODE     ---       #123
      010004BBH   LINE      CODE     ---       #124
      010004C0H   LINE      CODE     ---       #125
      010004D2H   LINE      CODE     ---       #126
      010004D8H   LINE      CODE     ---       #127
      010004DEH   LINE      CODE     ---       #128
      010004E1H   LINE      CODE     ---       #129
      010004E3H   LINE      CODE     ---       #130
      010004E3H   LINE      CODE     ---       #131
      010004FFH   LINE      CODE     ---       #132
      010004FFH   LINE      CODE     ---       #133
      01000505H   LINE      CODE     ---       #134
      0100050BH   LINE      CODE     ---       #135
      0100050BH   LINE      CODE     ---       #136
      0100050EH   LINE      CODE     ---       #137
      01000512H   LINE      CODE     ---       #138
      01000512H   LINE      CODE     ---       #140
LX51 LINKER/LOCATER V4.41                                                             12/15/2021  14:01:25  PAGE 17


      01000518H   LINE      CODE     ---       #141
      01000518H   LINE      CODE     ---       #142
      0100052CH   LINE      CODE     ---       #143
      01000544H   LINE      CODE     ---       #144
      01000546H   LINE      CODE     ---       #145
      01000546H   LINE      CODE     ---       #146
      0100054FH   LINE      CODE     ---       #147
      0100054FH   LINE      CODE     ---       #148
      0100054FH   LINE      CODE     ---       #149
      01000555H   LINE      CODE     ---       #150
      0100055CH   LINE      CODE     ---       #151
      0100055FH   LINE      CODE     ---       #152
      01000561H   LINE      CODE     ---       #154
      01000561H   LINE      CODE     ---       #155
      0100056DH   LINE      CODE     ---       #156
      0100056DH   LINE      CODE     ---       #157
      01000571H   LINE      CODE     ---       #158
      01000574H   LINE      CODE     ---       #159
      0100057AH   LINE      CODE     ---       #160
      0100057FH   LINE      CODE     ---       #161
      01000583H   LINE      CODE     ---       #162
      01000587H   LINE      CODE     ---       #163
      0100058AH   LINE      CODE     ---       #164
      0100058AH   LINE      CODE     ---       #165
      0100058AH   LINE      CODE     ---       #166
      0100058AH   LINE      CODE     ---       #167
      0100058AH   LINE      CODE     ---       #168
      0100058AH   LINE      CODE     ---       #169
      0100058AH   LINE      CODE     ---       #170
      010005A8H   LINE      CODE     ---       #171
      010005BAH   LINE      CODE     ---       #173
      010005BCH   LINE      CODE     ---       #174
      010005BCH   LINE      CODE     ---       #175
      010005C4H   LINE      CODE     ---       #176
      010005C4H   LINE      CODE     ---       #177
      010005C6H   LINE      CODE     ---       #178
      010005C9H   LINE      CODE     ---       #179
      010005D0H   LINE      CODE     ---       #180
      010005D0H   LINE      CODE     ---       #181
      010005D2H   LINE      CODE     ---       #182
      010005D3H   LINE      CODE     ---       #183
      010005D9H   LINE      CODE     ---       #184
      010005DDH   LINE      CODE     ---       #185
      010005DDH   LINE      CODE     ---       #186
      010005DDH   LINE      CODE     ---       #187
      010005DDH   LINE      CODE     ---       #189
      010005E7H   LINE      CODE     ---       #202
      ---         BLOCKEND  ---      ---       LVL=0

      01000A16H   BLOCK     CODE     ---       LVL=0
      00000001H   SYMBOL    DATA     ---       base
      020000D7H   SYMBOL    XDATA    INT       n
      01000A1EH   BLOCK     CODE     NEAR LAB  LVL=1
      020000D9H   SYMBOL    XDATA    INT       i
      020000DBH   SYMBOL    XDATA    INT       j
      01000A8FH   BLOCK     CODE     NEAR LAB  LVL=2
      020000DDH   SYMBOL    XDATA    WORD      t
      ---         BLOCKEND  ---      ---       LVL=2
      ---         BLOCKEND  ---      ---       LVL=1
      01000A16H   LINE      CODE     ---       #321
      01000A1EH   LINE      CODE     ---       #322
      01000A1EH   LINE      CODE     ---       #324
      01000A3FH   LINE      CODE     ---       #325
      01000A3FH   LINE      CODE     ---       #326
      01000A63H   LINE      CODE     ---       #327
LX51 LINKER/LOCATER V4.41                                                             12/15/2021  14:01:25  PAGE 18


      01000A63H   LINE      CODE     ---       #328
      01000A8FH   LINE      CODE     ---       #329
      01000A8FH   LINE      CODE     ---       #330
      01000AE0H   LINE      CODE     ---       #331
      01000AE0H   LINE      CODE     ---       #332
      01000AF2H   LINE      CODE     ---       #333
      01000B04H   LINE      CODE     ---       #334
      ---         BLOCKEND  ---      ---       LVL=0

      01000800H   BLOCK     CODE     ---       LVL=0
      020000D7H   SYMBOL    XDATA    ---       adbuff
      0100080BH   BLOCK     CODE     NEAR LAB  LVL=1
      020000DAH   SYMBOL    XDATA    BYTE      k
      020000DBH   SYMBOL    XDATA    BYTE      m
      00000006H   SYMBOL    DATA     WORD      wad_data
      00000006H   SYMBOL    DATA     WORD      j
      ---         BLOCKEND  ---      ---       LVL=1
      01000800H   LINE      CODE     ---       #336
      0100080BH   LINE      CODE     ---       #337
      0100080BH   LINE      CODE     ---       #338
      01000810H   LINE      CODE     ---       #339
      01000811H   LINE      CODE     ---       #341
      01000813H   LINE      CODE     ---       #342
      01000821H   LINE      CODE     ---       #343
      01000821H   LINE      CODE     ---       #344
      01000842H   LINE      CODE     ---       #345
      01000842H   LINE      CODE     ---       #346
      01000846H   LINE      CODE     ---       #347
      0100084CH   LINE      CODE     ---       #348
      0100084CH   LINE      CODE     ---       #349
      01000854H   LINE      CODE     ---       #350
      01000872H   LINE      CODE     ---       #352
      01000875H   LINE      CODE     ---       #353
      01000883H   LINE      CODE     ---       #354
      01000883H   LINE      CODE     ---       #355
      010008A4H   LINE      CODE     ---       #356
      010008A4H   LINE      CODE     ---       #357
      010008A8H   LINE      CODE     ---       #358
      010008AEH   LINE      CODE     ---       #359
      010008AEH   LINE      CODE     ---       #360
      010008B6H   LINE      CODE     ---       #361
      010008D4H   LINE      CODE     ---       #363
      010008D7H   LINE      CODE     ---       #364
      0100090BH   LINE      CODE     ---       #365
      01000916H   LINE      CODE     ---       #367
      01000916H   LINE      CODE     ---       #368
      ---         BLOCKEND  ---      ---       LVL=0

      010002A8H   BLOCK     CODE     ---       LVL=0
      010002A8H   BLOCK     CODE     NEAR LAB  LVL=1
      020000D5H   SYMBOL    XDATA    WORD      adc
      ---         BLOCKEND  ---      ---       LVL=1
      010002A8H   LINE      CODE     ---       #370
      010002A8H   LINE      CODE     ---       #371
      010002A8H   LINE      CODE     ---       #373
      010002B2H   LINE      CODE     ---       #374
      010002B2H   LINE      CODE     ---       #375
      010002B6H   LINE      CODE     ---       #376
      010002BBH   LINE      CODE     ---       #377
      010002BEH   LINE      CODE     ---       #378
      010002C1H   LINE      CODE     ---       #379
      010002C4H   LINE      CODE     ---       #380
      010002C9H   LINE      CODE     ---       #381
      010002CDH   LINE      CODE     ---       #383
      010002CDH   LINE      CODE     ---       #385
LX51 LINKER/LOCATER V4.41                                                             12/15/2021  14:01:25  PAGE 19


      010002D5H   LINE      CODE     ---       #386
      010002D5H   LINE      CODE     ---       #387
      010002DAH   LINE      CODE     ---       #388
      010002E5H   LINE      CODE     ---       #390
      010002F8H   LINE      CODE     ---       #391
      010002F9H   LINE      CODE     ---       #393
      01000303H   LINE      CODE     ---       #394
      01000303H   LINE      CODE     ---       #395
      01000304H   LINE      CODE     ---       #396
      01000315H   LINE      CODE     ---       #397
      01000330H   LINE      CODE     ---       #398
      01000339H   LINE      CODE     ---       #400
      01000344H   LINE      CODE     ---       #401
      01000344H   LINE      CODE     ---       #402
      01000346H   LINE      CODE     ---       #404
      01000352H   LINE      CODE     ---       #405
      01000361H   LINE      CODE     ---       #407
      0100036DH   LINE      CODE     ---       #408
      0100036DH   LINE      CODE     ---       #409
      01000374H   LINE      CODE     ---       #410
      01000374H   LINE      CODE     ---       #411
      0100038EH   LINE      CODE     ---       #412
      01000397H   LINE      CODE     ---       #413
      01000399H   LINE      CODE     ---       #414
      01000399H   LINE      CODE     ---       #415
      010003B3H   LINE      CODE     ---       #416
      010003CAH   LINE      CODE     ---       #417
      010003CAH   LINE      CODE     ---       #419
      010003D3H   LINE      CODE     ---       #420
      010003D3H   LINE      CODE     ---       #421
      010003E8H   LINE      CODE     ---       #422
      010003F1H   LINE      CODE     ---       #423
      010003F1H   LINE      CODE     ---       #424
      01000407H   LINE      CODE     ---       #425
      01000407H   LINE      CODE     ---       #426
      01000407H   LINE      CODE     ---       #428
      0100040DH   LINE      CODE     ---       #429
      0100040DH   LINE      CODE     ---       #430
      01000411H   LINE      CODE     ---       #431
      01000420H   LINE      CODE     ---       #432
      01000422H   LINE      CODE     ---       #433
      01000422H   LINE      CODE     ---       #434
      01000425H   LINE      CODE     ---       #435
      01000425H   LINE      CODE     ---       #436
      01000425H   LINE      CODE     ---       #437
      01000427H   LINE      CODE     ---       #438
      01000427H   LINE      CODE     ---       #439
      0100042BH   LINE      CODE     ---       #440
      0100042EH   LINE      CODE     ---       #441
      01000433H   LINE      CODE     ---       #442
      01000433H   LINE      CODE     ---       #444
      0100043CH   LINE      CODE     ---       #445
      0100043CH   LINE      CODE     ---       #446
      01000444H   LINE      CODE     ---       #447
      01000444H   LINE      CODE     ---       #448
      01000448H   LINE      CODE     ---       #451
      01000448H   LINE      CODE     ---       #453
      0100044CH   LINE      CODE     ---       #454
      0100044FH   LINE      CODE     ---       #455
      0100044FH   LINE      CODE     ---       #457
      01000456H   LINE      CODE     ---       #458
      01000456H   LINE      CODE     ---       #459
      01000467H   LINE      CODE     ---       #460
      0100046BH   LINE      CODE     ---       #462
      01000473H   LINE      CODE     ---       #463
LX51 LINKER/LOCATER V4.41                                                             12/15/2021  14:01:25  PAGE 20


      01000473H   LINE      CODE     ---       #464
      01000475H   LINE      CODE     ---       #465
      01000479H   LINE      CODE     ---       #466
      01000479H   LINE      CODE     ---       #467
      01000479H   LINE      CODE     ---       #468
      01000479H   LINE      CODE     ---       #469
      01000479H   LINE      CODE     ---       #470
      ---         BLOCKEND  ---      ---       LVL=0

      0100110EH   BLOCK     CODE     ---       LVL=0
      00000007H   SYMBOL    DATA     BYTE      time
      0100110EH   BLOCK     CODE     NEAR LAB  LVL=1
      00000006H   SYMBOL    DATA     BYTE      i
      ---         BLOCKEND  ---      ---       LVL=1
      0100110EH   LINE      CODE     ---       #472
      0100110EH   LINE      CODE     ---       #473
      0100110EH   LINE      CODE     ---       #475
      01001111H   LINE      CODE     ---       #476
      01001111H   LINE      CODE     ---       #477
      01001113H   LINE      CODE     ---       #478
      01001113H   LINE      CODE     ---       #479
      01001114H   LINE      CODE     ---       #480
      01001115H   LINE      CODE     ---       #481
      01001116H   LINE      CODE     ---       #482
      0100111BH   LINE      CODE     ---       #483
      0100111CH   LINE      CODE     ---       #484
      0100111EH   LINE      CODE     ---       #486
      ---         BLOCKEND  ---      ---       LVL=0

      ---         MODULE    ---      ---       INIT
      0100072AH   PUBLIC    CODE     ---       Ram_init
      01000F7FH   PUBLIC    CODE     ---       Port_init
      0100112EH   PUBLIC    CODE     ---       Clock_init
      010010D6H   PUBLIC    CODE     ---       Timer2_init
      0100113DH   PUBLIC    CODE     ---       timer1_stop
      0100009EH   PUBLIC    CODE     ---       timer1_start
      01000006H   PUBLIC    CODE     ---       Timer1_init
      0100006EH   PUBLIC    CODE     ---       Timer0_init
      0100111FH   PUBLIC    CODE     ---       _ADC_start
      010010C2H   PUBLIC    CODE     ---       ADC_init
      01001034H   PUBLIC    CODE     ---       ADC_read
      01000FF6H   PUBLIC    CODE     ---       WDT_init
      0100002EH   PUBLIC    CODE     ---       WDT_clear
      01000026H   PUBLIC    CODE     ---       WDT_disable
      0100001EH   PUBLIC    CODE     ---       WDT_enable
      00000080H   SFRSYM    DATA     BYTE      P0
      00000088H   SFRSYM    DATA     BYTE      P1
      00000086H   SFRSYM    DATA     BYTE      LVICR
      00000090H   SFRSYM    DATA     BYTE      P2
      000000B5H   SFRSYM    DATA     BYTE      SPICR
      00000098H   SFRSYM    DATA     BYTE      P3
      000000B6H   SFRSYM    DATA     BYTE      SPIDR
      000000E2H   SFRSYM    DATA     BYTE      UARTCR1
      000000E3H   SFRSYM    DATA     BYTE      UARTCR2
      0000008DH   SFRSYM    DATA     BYTE      WDTCR
      000000E4H   SFRSYM    DATA     BYTE      UARTCR3
      0000008EH   SFRSYM    DATA     BYTE      WDTDR
      000000DDH   SFRSYM    DATA     BYTE      ADWIFRH
      00000097H   SFRSYM    DATA     BYTE      BUZCR
      0000008FH   SFRSYM    DATA     BYTE      BUZDR
      000000D8H   SFRSYM    DATA     BYTE      LVRCR
      000000DCH   SFRSYM    DATA     BYTE      ADWIFRL
      00000085H   SFRSYM    DATA     BYTE      DPH1
      000000A8H   SFRSYM    DATA     BYTE      IE
      00000084H   SFRSYM    DATA     BYTE      DPL1
LX51 LINKER/LOCATER V4.41                                                             12/15/2021  14:01:25  PAGE 21


      00000089H   SFRSYM    DATA     BYTE      WTCNT
      000000B7H   SFRSYM    DATA     BYTE      SPISR
      000000E8H   SFRSYM    DATA     BYTE      RSTFR
      000000A2H   SFRSYM    DATA     BYTE      EO
      00000091H   SFRSYM    DATA     BYTE      P0OD
      00000092H   SFRSYM    DATA     BYTE      P1OD
      00000093H   SFRSYM    DATA     BYTE      P2OD
      00000094H   SFRSYM    DATA     BYTE      P3OD
      000000B8H   SFRSYM    DATA     BYTE      IP
      000000A1H   SFRSYM    DATA     BYTE      P0IO
      000000B2H   SFRSYM    DATA     BYTE      T0CR
      000000B1H   SFRSYM    DATA     BYTE      P1IO
      000000B4H   SFRSYM    DATA     BYTE      T0DR
      000000B9H   SFRSYM    DATA     BYTE      P2IO
      000000C1H   SFRSYM    DATA     BYTE      P3IO
      00000081H   SFRSYM    DATA     BYTE      SP
      000000FDH   SFRSYM    DATA     BYTE      FIDR
      000000BDH   SFRSYM    DATA     BYTE      T1ADRH
      000000ACH   SFRSYM    DATA     BYTE      P0PU
      0000009DH   SFRSYM    DATA     BYTE      ADCCRH
      000000C5H   SFRSYM    DATA     BYTE      T2ADRH
      000000BFH   SFRSYM    DATA     BYTE      T1BDRH
      000000ADH   SFRSYM    DATA     BYTE      P1PU
      0000009FH   SFRSYM    DATA     BYTE      ADCDRH
      000000C7H   SFRSYM    DATA     BYTE      T2BDRH
      000000AEH   SFRSYM    DATA     BYTE      P2PU
      000000FEH   SFRSYM    DATA     BYTE      FMCR
      000000AFH   SFRSYM    DATA     BYTE      P3PU
      000000BCH   SFRSYM    DATA     BYTE      T1ADRL
      0000009CH   SFRSYM    DATA     BYTE      ADCCRL
      000000C4H   SFRSYM    DATA     BYTE      T2ADRL
      000000BEH   SFRSYM    DATA     BYTE      T1BDRL
      0000009EH   SFRSYM    DATA     BYTE      ADCDRL
      000000C6H   SFRSYM    DATA     BYTE      T2BDRL
      0000008AH   SFRSYM    DATA     BYTE      SCCR
      000000A6H   SFRSYM    DATA     BYTE      EIPOL1
      000000A7H   SFRSYM    DATA     BYTE      EIPOL2
      000000A0H   SFRSYM    DATA     BYTE      IIFLAG
      00000080H   SFRSYM    DATA     BIT       P00
      00000087H   SFRSYM    DATA     BYTE      PCON
      00000088H   SFRSYM    DATA     BIT       P10
      00000080H.1 SFRSYM    DATA     BIT       P01
      00000090H   SFRSYM    DATA     BIT       P20
      00000088H.1 SFRSYM    DATA     BIT       P11
      00000080H.2 SFRSYM    DATA     BIT       P02
      00000098H   SFRSYM    DATA     BIT       P30
      00000090H.1 SFRSYM    DATA     BIT       P21
      00000088H.2 SFRSYM    DATA     BIT       P12
      00000080H.3 SFRSYM    DATA     BIT       P03
      00000098H.1 SFRSYM    DATA     BIT       P31
      00000090H.2 SFRSYM    DATA     BIT       P22
      00000088H.3 SFRSYM    DATA     BIT       P13
      00000080H.4 SFRSYM    DATA     BIT       P04
      00000098H.2 SFRSYM    DATA     BIT       P32
      00000090H.3 SFRSYM    DATA     BIT       P23
      00000088H.4 SFRSYM    DATA     BIT       P14
      00000080H.5 SFRSYM    DATA     BIT       P05
      000000D5H   SFRSYM    DATA     BYTE      P1FSRH
      00000098H.3 SFRSYM    DATA     BIT       P33
      00000090H.4 SFRSYM    DATA     BIT       P24
      00000088H.5 SFRSYM    DATA     BIT       P15
      00000080H.6 SFRSYM    DATA     BIT       P06
      00000098H.4 SFRSYM    DATA     BIT       P34
      00000090H.5 SFRSYM    DATA     BIT       P25
      00000088H.6 SFRSYM    DATA     BIT       P16
LX51 LINKER/LOCATER V4.41                                                             12/15/2021  14:01:25  PAGE 22


      00000080H.7 SFRSYM    DATA     BIT       P07
      00000098H.5 SFRSYM    DATA     BIT       P35
      00000090H.6 SFRSYM    DATA     BIT       P26
      00000088H.7 SFRSYM    DATA     BIT       P17
      00000098H.6 SFRSYM    DATA     BIT       P36
      00000090H.7 SFRSYM    DATA     BIT       P27
      000000FAH   SFRSYM    DATA     BYTE      FSADRH
      000000D4H   SFRSYM    DATA     BYTE      P1FSRL
      00000098H.7 SFRSYM    DATA     BIT       P37
      000000DFH   SFRSYM    DATA     BYTE      P12DB
      000000DEH   SFRSYM    DATA     BYTE      P03DB
      000000F7H   SFRSYM    DATA     BYTE      ADWCRH
      000000FCH   SFRSYM    DATA     BYTE      FSADRL
      000000FBH   SFRSYM    DATA     BYTE      FSADRM
      000000F6H   SFRSYM    DATA     BYTE      ADWCRL
      000000A9H   SFRSYM    DATA     BYTE      IE1
      000000AAH   SFRSYM    DATA     BYTE      IE2
      000000F0H   SFRSYM    DATA     BYTE      B
      00000096H   SFRSYM    DATA     BYTE      WTCR
      000000ABH   SFRSYM    DATA     BYTE      IE3
      00000089H   SFRSYM    DATA     BYTE      WTDR
      000000E6H   SFRSYM    DATA     BYTE      UARTBD
      0000008CH   SFRSYM    DATA     BYTE      BITCNT
      000000E0H   SFRSYM    DATA     BYTE      ACC
      000000F8H   SFRSYM    DATA     BYTE      IP1
      000000E9H   SFRSYM    DATA     BYTE      I2CCR
      000000E7H   SFRSYM    DATA     BYTE      UARTDR
      000000ECH   SFRSYM    DATA     BYTE      I2CDR
      000000EBH   SFRSYM    DATA     BYTE      I2CSAR0
      0000008EH   SFRSYM    DATA     BYTE      WDTCNT
      000000F1H   SFRSYM    DATA     BYTE      I2CSAR1
      000000C0H   SFRSYM    DATA     BYTE      EIFLAG0
      000000B0H   SFRSYM    DATA     BYTE      EIFLAG1
      00000083H   SFRSYM    DATA     BYTE      DPH
      000000BCH   SFRSYM    DATA     WORD      T1ADR
      000000C4H   SFRSYM    DATA     WORD      T2ADR
      000000BEH   SFRSYM    DATA     WORD      T1BDR
      000000B4H   SFRSYM    DATA     BYTE      T0CDR
      000000C6H   SFRSYM    DATA     WORD      T2BDR
      00000082H   SFRSYM    DATA     BYTE      DPL
      000000BBH   SFRSYM    DATA     BYTE      T1CRH
      000000EAH   SFRSYM    DATA     BYTE      I2CSR
      000000C3H   SFRSYM    DATA     BYTE      T2CRH
      000000E5H   SFRSYM    DATA     BYTE      UARTST
      000000BAH   SFRSYM    DATA     BYTE      T1CRL
      000000C2H   SFRSYM    DATA     BYTE      T2CRL
      000000B3H   SFRSYM    DATA     BYTE      T0CNT
      000000D3H   SFRSYM    DATA     BYTE      P0FSR
      000000D6H   SFRSYM    DATA     BYTE      P2FSR
      000000D7H   SFRSYM    DATA     BYTE      P3FSR
      000000EFH   SFRSYM    DATA     BYTE      I2CSCHR
      000000EDH   SFRSYM    DATA     BYTE      I2CSDHR
      000000A5H   SFRSYM    DATA     BYTE      EIPOL0H
      000000EEH   SFRSYM    DATA     BYTE      I2CSCLR
      000000F2H   SFRSYM    DATA     BYTE      ADWRCR0
      0000008BH   SFRSYM    DATA     BYTE      BITCR
      000000F3H   SFRSYM    DATA     BYTE      ADWRCR1
      000000F4H   SFRSYM    DATA     BYTE      ADWRCR2
      000000A4H   SFRSYM    DATA     BYTE      EIPOL0L
      000000F5H   SFRSYM    DATA     BYTE      ADWRCR3
      000000D0H   SFRSYM    DATA     BYTE      PSW
      000000C8H   SFRSYM    DATA     BYTE      OSCCR

      0100001EH   BLOCK     CODE     ---       LVL=0
      0100001EH   LINE      CODE     ---       #29
LX51 LINKER/LOCATER V4.41                                                             12/15/2021  14:01:25  PAGE 23


      0100001EH   LINE      CODE     ---       #30
      0100001EH   LINE      CODE     ---       #31
      01000021H   LINE      CODE     ---       #32
      ---         BLOCKEND  ---      ---       LVL=0

      01000026H   BLOCK     CODE     ---       LVL=0
      01000026H   LINE      CODE     ---       #34
      01000026H   LINE      CODE     ---       #35
      01000026H   LINE      CODE     ---       #36
      01000029H   LINE      CODE     ---       #37
      ---         BLOCKEND  ---      ---       LVL=0

      0100002EH   BLOCK     CODE     ---       LVL=0
      0100002EH   LINE      CODE     ---       #40
      0100002EH   LINE      CODE     ---       #41
      0100002EH   LINE      CODE     ---       #42
      01000031H   LINE      CODE     ---       #43
      ---         BLOCKEND  ---      ---       LVL=0

      01000FF6H   BLOCK     CODE     ---       LVL=0
      01000FF6H   LINE      CODE     ---       #45
      01000FF6H   LINE      CODE     ---       #46
      01000FF6H   LINE      CODE     ---       #48
      01000FF9H   LINE      CODE     ---       #49
      01000FFCH   LINE      CODE     ---       #50
      ---         BLOCKEND  ---      ---       LVL=0

      01001034H   BLOCK     CODE     ---       LVL=0
      01001034H   BLOCK     CODE     NEAR LAB  LVL=1
      00000006H   SYMBOL    DATA     WORD      adcVal
      00000006H   SYMBOL    DATA     WORD      dd
      ---         BLOCKEND  ---      ---       LVL=1
      01001034H   LINE      CODE     ---       #58
      01001034H   LINE      CODE     ---       #59
      01001034H   LINE      CODE     ---       #60
      01001038H   LINE      CODE     ---       #62
      01001046H   LINE      CODE     ---       #63
      0100104EH   LINE      CODE     ---       #64
      01001058H   LINE      CODE     ---       #65
      ---         BLOCKEND  ---      ---       LVL=0

      010010C2H   BLOCK     CODE     ---       LVL=0
      010010C2H   LINE      CODE     ---       #67
      010010C2H   LINE      CODE     ---       #68
      010010C2H   LINE      CODE     ---       #70
      010010C5H   LINE      CODE     ---       #71
      010010C8H   LINE      CODE     ---       #72
      010010CBH   LINE      CODE     ---       #73
      010010CDH   LINE      CODE     ---       #74
      010010CFH   LINE      CODE     ---       #75
      010010D1H   LINE      CODE     ---       #76
      010010D3H   LINE      CODE     ---       #77
      010010D5H   LINE      CODE     ---       #78
      ---         BLOCKEND  ---      ---       LVL=0

      0100111FH   BLOCK     CODE     ---       LVL=0
      00000007H   SYMBOL    DATA     BYTE      ch
      0100111FH   LINE      CODE     ---       #80
      0100111FH   LINE      CODE     ---       #81
      0100111FH   LINE      CODE     ---       #83
      0100112AH   LINE      CODE     ---       #84
      0100112DH   LINE      CODE     ---       #85
      ---         BLOCKEND  ---      ---       LVL=0

      0100006EH   BLOCK     CODE     ---       LVL=0
LX51 LINKER/LOCATER V4.41                                                             12/15/2021  14:01:25  PAGE 24


      0100006EH   LINE      CODE     ---       #97
      0100006EH   LINE      CODE     ---       #98
      0100006EH   LINE      CODE     ---       #101
      01000071H   LINE      CODE     ---       #102
      01000074H   LINE      CODE     ---       #103
      01000077H   LINE      CODE     ---       #104
      0100007AH   LINE      CODE     ---       #105
      ---         BLOCKEND  ---      ---       LVL=0

      01000006H   BLOCK     CODE     ---       LVL=0
      01000006H   LINE      CODE     ---       #107
      01000006H   LINE      CODE     ---       #108
      01000006H   LINE      CODE     ---       #113
      01000009H   LINE      CODE     ---       #114
      0100000CH   LINE      CODE     ---       #115
      0100000FH   LINE      CODE     ---       #116
      01000012H   LINE      CODE     ---       #117
      01000015H   LINE      CODE     ---       #118
      01000018H   LINE      CODE     ---       #119
      ---         BLOCKEND  ---      ---       LVL=0

      0100009EH   BLOCK     CODE     ---       LVL=0
      0100009EH   LINE      CODE     ---       #122
      0100009EH   LINE      CODE     ---       #123
      0100009EH   LINE      CODE     ---       #124
      010000A5H   LINE      CODE     ---       #125
      010000A7H   LINE      CODE     ---       #126
      010000AAH   LINE      CODE     ---       #127
      ---         BLOCKEND  ---      ---       LVL=0

      0100113DH   BLOCK     CODE     ---       LVL=0
      0100113DH   LINE      CODE     ---       #129
      0100113DH   LINE      CODE     ---       #130
      0100113DH   LINE      CODE     ---       #131
      01001144H   LINE      CODE     ---       #132
      01001146H   LINE      CODE     ---       #133
      01001149H   LINE      CODE     ---       #134
      ---         BLOCKEND  ---      ---       LVL=0

      010010D6H   BLOCK     CODE     ---       LVL=0
      010010D6H   LINE      CODE     ---       #136
      010010D6H   LINE      CODE     ---       #137
      010010D6H   LINE      CODE     ---       #140
      010010D9H   LINE      CODE     ---       #141
      010010DCH   LINE      CODE     ---       #142
      010010DFH   LINE      CODE     ---       #143
      010010E2H   LINE      CODE     ---       #144
      010010E5H   LINE      CODE     ---       #145
      010010E8H   LINE      CODE     ---       #146
      ---         BLOCKEND  ---      ---       LVL=0

      0100112EH   BLOCK     CODE     ---       LVL=0
      0100112EH   LINE      CODE     ---       #149
      0100112EH   LINE      CODE     ---       #150
      0100112EH   LINE      CODE     ---       #159
      01001131H   LINE      CODE     ---       #166
      01001134H   LINE      CODE     ---       #167
      01001139H   LINE      CODE     ---       #174
      0100113CH   LINE      CODE     ---       #177
      ---         BLOCKEND  ---      ---       LVL=0

      01000F7FH   BLOCK     CODE     ---       LVL=0
      01000F7FH   LINE      CODE     ---       #179
      01000F7FH   LINE      CODE     ---       #180
      01000F7FH   LINE      CODE     ---       #202
LX51 LINKER/LOCATER V4.41                                                             12/15/2021  14:01:25  PAGE 25


      01000F82H   LINE      CODE     ---       #203
      01000F85H   LINE      CODE     ---       #204
      01000F87H   LINE      CODE     ---       #205
      01000F89H   LINE      CODE     ---       #206
      01000F8BH   LINE      CODE     ---       #208
      01000F8EH   LINE      CODE     ---       #209
      01000F91H   LINE      CODE     ---       #210
      01000F94H   LINE      CODE     ---       #211
      01000F97H   LINE      CODE     ---       #212
      01000F99H   LINE      CODE     ---       #214
      01000F9CH   LINE      CODE     ---       #215
      01000F9EH   LINE      CODE     ---       #216
      01000FA0H   LINE      CODE     ---       #217
      01000FA2H   LINE      CODE     ---       #219
      01000FA5H   LINE      CODE     ---       #220
      01000FA8H   LINE      CODE     ---       #221
      01000FABH   LINE      CODE     ---       #222
      01000FADH   LINE      CODE     ---       #225
      01000FB0H   LINE      CODE     ---       #226
      01000FB2H   LINE      CODE     ---       #227
      01000FB5H   LINE      CODE     ---       #228
      01000FB7H   LINE      CODE     ---       #229
      01000FBAH   LINE      CODE     ---       #231
      01000FBCH   LINE      CODE     ---       #232
      ---         BLOCKEND  ---      ---       LVL=0

      0100072AH   BLOCK     CODE     ---       LVL=0
      0100072AH   BLOCK     CODE     NEAR LAB  LVL=1
      020000D5H   SYMBOL    XDATA    WORD      i
      ---         BLOCKEND  ---      ---       LVL=1
      0100072AH   LINE      CODE     ---       #237
      0100072AH   LINE      CODE     ---       #238
      0100072AH   LINE      CODE     ---       #241
      01000734H   LINE      CODE     ---       #243
      01000739H   LINE      CODE     ---       #245
      01000739H   LINE      CODE     ---       #246
      0100074EH   LINE      CODE     ---       #247
      0100075CH   LINE      CODE     ---       #248
      0100075FH   LINE      CODE     ---       #249
      01000784H   LINE      CODE     ---       #250
      01000784H   LINE      CODE     ---       #252
      0100078BH   LINE      CODE     ---       #253
      01000791H   LINE      CODE     ---       #254
      01000794H   LINE      CODE     ---       #255
      01000797H   LINE      CODE     ---       #256
      0100079DH   LINE      CODE     ---       #257
      010007A3H   LINE      CODE     ---       #258
      010007A7H   LINE      CODE     ---       #259
      010007ABH   LINE      CODE     ---       #260
      010007AEH   LINE      CODE     ---       #278
      010007B3H   LINE      CODE     ---       #279
      010007B3H   LINE      CODE     ---       #280
      010007BCH   LINE      CODE     ---       #281
      010007C0H   LINE      CODE     ---       #282
      010007C2H   LINE      CODE     ---       #283
      010007C2H   LINE      CODE     ---       #284
      010007CDH   LINE      CODE     ---       #285
      010007CFH   LINE      CODE     ---       #286
      010007CFH   LINE      CODE     ---       #288
      010007D9H   LINE      CODE     ---       #291
      010007E0H   LINE      CODE     ---       #292
      010007E7H   LINE      CODE     ---       #293
      010007E7H   LINE      CODE     ---       #294
      010007ECH   LINE      CODE     ---       #295
      010007EFH   LINE      CODE     ---       #296
LX51 LINKER/LOCATER V4.41                                                             12/15/2021  14:01:25  PAGE 26


      010007F4H   LINE      CODE     ---       #297
      010007F4H   LINE      CODE     ---       #300
      ---         BLOCKEND  ---      ---       LVL=0

      ---         MODULE    ---      ---       INT
      0100004AH   PUBLIC    CODE     ---       INT_BIT
      01000049H   PUBLIC    CODE     ---       WDT_Int
      01000048H   PUBLIC    CODE     ---       SPI_Int
      01000047H   PUBLIC    CODE     ---       ADC_Int
      01000046H   PUBLIC    CODE     ---       EXT7_A_Int
      01000042H   PUBLIC    CODE     ---       RESV2_Int
      01000EEBH   PUBLIC    CODE     ---       INT_Timer2
      01000917H   PUBLIC    CODE     ---       TIMER0_Int
      01000041H   PUBLIC    CODE     ---       TIMER0_OVER_FLOW_Int
      01000040H   PUBLIC    CODE     ---       ADC_WAKE_UP
      0100003FH   PUBLIC    CODE     ---       I2C_Int
      0100003EH   PUBLIC    CODE     ---       EXT6_Int
      0100003AH   PUBLIC    CODE     ---       EXT5_Int
      01000036H   PUBLIC    CODE     ---       EXT0_4_Int
      01000032H   PUBLIC    CODE     ---       RESV1_Int
      0100002AH   PUBLIC    CODE     ---       RESV0_Int
      01000022H   PUBLIC    CODE     ---       EXT10_Int
      00000080H   SFRSYM    DATA     BYTE      P0
      00000088H   SFRSYM    DATA     BYTE      P1
      00000086H   SFRSYM    DATA     BYTE      LVICR
      00000090H   SFRSYM    DATA     BYTE      P2
      000000B5H   SFRSYM    DATA     BYTE      SPICR
      00000098H   SFRSYM    DATA     BYTE      P3
      000000B6H   SFRSYM    DATA     BYTE      SPIDR
      000000E2H   SFRSYM    DATA     BYTE      UARTCR1
      000000E3H   SFRSYM    DATA     BYTE      UARTCR2
      0000008DH   SFRSYM    DATA     BYTE      WDTCR
      000000E4H   SFRSYM    DATA     BYTE      UARTCR3
      0000008EH   SFRSYM    DATA     BYTE      WDTDR
      000000DDH   SFRSYM    DATA     BYTE      ADWIFRH
      00000097H   SFRSYM    DATA     BYTE      BUZCR
      0000008FH   SFRSYM    DATA     BYTE      BUZDR
      000000D8H   SFRSYM    DATA     BYTE      LVRCR
      000000DCH   SFRSYM    DATA     BYTE      ADWIFRL
      00000085H   SFRSYM    DATA     BYTE      DPH1
      000000A8H   SFRSYM    DATA     BYTE      IE
      00000084H   SFRSYM    DATA     BYTE      DPL1
      00000089H   SFRSYM    DATA     BYTE      WTCNT
      000000B7H   SFRSYM    DATA     BYTE      SPISR
      000000E8H   SFRSYM    DATA     BYTE      RSTFR
      000000A2H   SFRSYM    DATA     BYTE      EO
      00000091H   SFRSYM    DATA     BYTE      P0OD
      00000092H   SFRSYM    DATA     BYTE      P1OD
      00000093H   SFRSYM    DATA     BYTE      P2OD
      00000094H   SFRSYM    DATA     BYTE      P3OD
      000000B8H   SFRSYM    DATA     BYTE      IP
      000000A1H   SFRSYM    DATA     BYTE      P0IO
      000000B2H   SFRSYM    DATA     BYTE      T0CR
      000000B1H   SFRSYM    DATA     BYTE      P1IO
      000000B4H   SFRSYM    DATA     BYTE      T0DR
      000000B9H   SFRSYM    DATA     BYTE      P2IO
      000000C1H   SFRSYM    DATA     BYTE      P3IO
      00000081H   SFRSYM    DATA     BYTE      SP
      000000FDH   SFRSYM    DATA     BYTE      FIDR
      000000BDH   SFRSYM    DATA     BYTE      T1ADRH
      000000ACH   SFRSYM    DATA     BYTE      P0PU
      0000009DH   SFRSYM    DATA     BYTE      ADCCRH
      000000C5H   SFRSYM    DATA     BYTE      T2ADRH
      000000BFH   SFRSYM    DATA     BYTE      T1BDRH
      000000ADH   SFRSYM    DATA     BYTE      P1PU
LX51 LINKER/LOCATER V4.41                                                             12/15/2021  14:01:25  PAGE 27


      0000009FH   SFRSYM    DATA     BYTE      ADCDRH
      000000C7H   SFRSYM    DATA     BYTE      T2BDRH
      000000AEH   SFRSYM    DATA     BYTE      P2PU
      000000FEH   SFRSYM    DATA     BYTE      FMCR
      000000AFH   SFRSYM    DATA     BYTE      P3PU
      000000BCH   SFRSYM    DATA     BYTE      T1ADRL
      0000009CH   SFRSYM    DATA     BYTE      ADCCRL
      000000C4H   SFRSYM    DATA     BYTE      T2ADRL
      000000BEH   SFRSYM    DATA     BYTE      T1BDRL
      0000009EH   SFRSYM    DATA     BYTE      ADCDRL
      000000C6H   SFRSYM    DATA     BYTE      T2BDRL
      0000008AH   SFRSYM    DATA     BYTE      SCCR
      000000A6H   SFRSYM    DATA     BYTE      EIPOL1
      000000A7H   SFRSYM    DATA     BYTE      EIPOL2
      000000A0H   SFRSYM    DATA     BYTE      IIFLAG
      00000080H   SFRSYM    DATA     BIT       P00
      00000087H   SFRSYM    DATA     BYTE      PCON
      00000088H   SFRSYM    DATA     BIT       P10
      00000080H.1 SFRSYM    DATA     BIT       P01
      00000090H   SFRSYM    DATA     BIT       P20
      00000088H.1 SFRSYM    DATA     BIT       P11
      00000080H.2 SFRSYM    DATA     BIT       P02
      00000098H   SFRSYM    DATA     BIT       P30
      00000090H.1 SFRSYM    DATA     BIT       P21
      00000088H.2 SFRSYM    DATA     BIT       P12
      00000080H.3 SFRSYM    DATA     BIT       P03
      00000098H.1 SFRSYM    DATA     BIT       P31
      00000090H.2 SFRSYM    DATA     BIT       P22
      00000088H.3 SFRSYM    DATA     BIT       P13
      00000080H.4 SFRSYM    DATA     BIT       P04
      00000098H.2 SFRSYM    DATA     BIT       P32
      00000090H.3 SFRSYM    DATA     BIT       P23
      00000088H.4 SFRSYM    DATA     BIT       P14
      00000080H.5 SFRSYM    DATA     BIT       P05
      000000D5H   SFRSYM    DATA     BYTE      P1FSRH
      00000098H.3 SFRSYM    DATA     BIT       P33
      00000090H.4 SFRSYM    DATA     BIT       P24
      00000088H.5 SFRSYM    DATA     BIT       P15
      00000080H.6 SFRSYM    DATA     BIT       P06
      00000098H.4 SFRSYM    DATA     BIT       P34
      00000090H.5 SFRSYM    DATA     BIT       P25
      00000088H.6 SFRSYM    DATA     BIT       P16
      00000080H.7 SFRSYM    DATA     BIT       P07
      00000098H.5 SFRSYM    DATA     BIT       P35
      00000090H.6 SFRSYM    DATA     BIT       P26
      00000088H.7 SFRSYM    DATA     BIT       P17
      00000098H.6 SFRSYM    DATA     BIT       P36
      00000090H.7 SFRSYM    DATA     BIT       P27
      000000FAH   SFRSYM    DATA     BYTE      FSADRH
      000000D4H   SFRSYM    DATA     BYTE      P1FSRL
      00000098H.7 SFRSYM    DATA     BIT       P37
      000000DFH   SFRSYM    DATA     BYTE      P12DB
      000000DEH   SFRSYM    DATA     BYTE      P03DB
      000000F7H   SFRSYM    DATA     BYTE      ADWCRH
      000000FCH   SFRSYM    DATA     BYTE      FSADRL
      000000FBH   SFRSYM    DATA     BYTE      FSADRM
      000000F6H   SFRSYM    DATA     BYTE      ADWCRL
      000000A9H   SFRSYM    DATA     BYTE      IE1
      000000AAH   SFRSYM    DATA     BYTE      IE2
      000000F0H   SFRSYM    DATA     BYTE      B
      00000096H   SFRSYM    DATA     BYTE      WTCR
      000000ABH   SFRSYM    DATA     BYTE      IE3
      00000089H   SFRSYM    DATA     BYTE      WTDR
      000000E6H   SFRSYM    DATA     BYTE      UARTBD
      0000008CH   SFRSYM    DATA     BYTE      BITCNT
LX51 LINKER/LOCATER V4.41                                                             12/15/2021  14:01:25  PAGE 28


      000000E0H   SFRSYM    DATA     BYTE      ACC
      000000F8H   SFRSYM    DATA     BYTE      IP1
      000000E9H   SFRSYM    DATA     BYTE      I2CCR
      000000E7H   SFRSYM    DATA     BYTE      UARTDR
      000000ECH   SFRSYM    DATA     BYTE      I2CDR
      000000EBH   SFRSYM    DATA     BYTE      I2CSAR0
      0000008EH   SFRSYM    DATA     BYTE      WDTCNT
      000000F1H   SFRSYM    DATA     BYTE      I2CSAR1
      000000C0H   SFRSYM    DATA     BYTE      EIFLAG0
      000000B0H   SFRSYM    DATA     BYTE      EIFLAG1
      00000083H   SFRSYM    DATA     BYTE      DPH
      000000BCH   SFRSYM    DATA     WORD      T1ADR
      000000C4H   SFRSYM    DATA     WORD      T2ADR
      000000BEH   SFRSYM    DATA     WORD      T1BDR
      000000B4H   SFRSYM    DATA     BYTE      T0CDR
      000000C6H   SFRSYM    DATA     WORD      T2BDR
      00000082H   SFRSYM    DATA     BYTE      DPL
      000000BBH   SFRSYM    DATA     BYTE      T1CRH
      000000EAH   SFRSYM    DATA     BYTE      I2CSR
      000000C3H   SFRSYM    DATA     BYTE      T2CRH
      000000E5H   SFRSYM    DATA     BYTE      UARTST
      000000BAH   SFRSYM    DATA     BYTE      T1CRL
      000000C2H   SFRSYM    DATA     BYTE      T2CRL
      000000B3H   SFRSYM    DATA     BYTE      T0CNT
      000000D3H   SFRSYM    DATA     BYTE      P0FSR
      000000D6H   SFRSYM    DATA     BYTE      P2FSR
      000000D7H   SFRSYM    DATA     BYTE      P3FSR
      000000EFH   SFRSYM    DATA     BYTE      I2CSCHR
      000000EDH   SFRSYM    DATA     BYTE      I2CSDHR
      000000A5H   SFRSYM    DATA     BYTE      EIPOL0H
      000000EEH   SFRSYM    DATA     BYTE      I2CSCLR
      000000F2H   SFRSYM    DATA     BYTE      ADWRCR0
      0000008BH   SFRSYM    DATA     BYTE      BITCR
      000000F3H   SFRSYM    DATA     BYTE      ADWRCR1
      000000F4H   SFRSYM    DATA     BYTE      ADWRCR2
      000000A4H   SFRSYM    DATA     BYTE      EIPOL0L
      000000F5H   SFRSYM    DATA     BYTE      ADWRCR3
      000000D0H   SFRSYM    DATA     BYTE      PSW
      000000C8H   SFRSYM    DATA     BYTE      OSCCR

      01000022H   BLOCK     CODE     ---       LVL=0
      01000022H   LINE      CODE     ---       #25
      01000022H   LINE      CODE     ---       #26
      ---         BLOCKEND  ---      ---       LVL=0

      0100002AH   BLOCK     CODE     ---       LVL=0
      0100002AH   LINE      CODE     ---       #27
      0100002AH   LINE      CODE     ---       #28
      ---         BLOCKEND  ---      ---       LVL=0

      01000032H   BLOCK     CODE     ---       LVL=0
      01000032H   LINE      CODE     ---       #29
      01000032H   LINE      CODE     ---       #30
      ---         BLOCKEND  ---      ---       LVL=0

      01000036H   BLOCK     CODE     ---       LVL=0
      01000036H   LINE      CODE     ---       #31
      01000036H   LINE      CODE     ---       #33
      01000039H   LINE      CODE     ---       #34
      ---         BLOCKEND  ---      ---       LVL=0

      0100003AH   BLOCK     CODE     ---       LVL=0
      0100003AH   LINE      CODE     ---       #35
      0100003AH   LINE      CODE     ---       #36
      ---         BLOCKEND  ---      ---       LVL=0
LX51 LINKER/LOCATER V4.41                                                             12/15/2021  14:01:25  PAGE 29



      0100003EH   BLOCK     CODE     ---       LVL=0
      0100003EH   LINE      CODE     ---       #37
      0100003EH   LINE      CODE     ---       #38
      ---         BLOCKEND  ---      ---       LVL=0

      0100003FH   BLOCK     CODE     ---       LVL=0
      0100003FH   LINE      CODE     ---       #39
      0100003FH   LINE      CODE     ---       #40
      ---         BLOCKEND  ---      ---       LVL=0

      01000040H   BLOCK     CODE     ---       LVL=0
      01000040H   LINE      CODE     ---       #49
      01000040H   LINE      CODE     ---       #50
      ---         BLOCKEND  ---      ---       LVL=0

      01000041H   BLOCK     CODE     ---       LVL=0
      01000041H   LINE      CODE     ---       #51
      01000041H   LINE      CODE     ---       #52
      ---         BLOCKEND  ---      ---       LVL=0

      01000917H   BLOCK     CODE     ---       LVL=0
      01000917H   LINE      CODE     ---       #53
      0100092AH   LINE      CODE     ---       #57
      01000930H   LINE      CODE     ---       #59
      0100093DH   LINE      CODE     ---       #60
      0100093DH   LINE      CODE     ---       #61
      0100093FH   LINE      CODE     ---       #62
      01000947H   LINE      CODE     ---       #64
      01000954H   LINE      CODE     ---       #65
      01000954H   LINE      CODE     ---       #66
      01000956H   LINE      CODE     ---       #67
      0100095CH   LINE      CODE     ---       #68
      01000962H   LINE      CODE     ---       #69
      01000968H   LINE      CODE     ---       #70
      0100096EH   LINE      CODE     ---       #71
      01000976H   LINE      CODE     ---       #72
      01000979H   LINE      CODE     ---       #74
      0100098EH   LINE      CODE     ---       #75
      0100098EH   LINE      CODE     ---       #76
      01000997H   LINE      CODE     ---       #77
      01000997H   LINE      CODE     ---       #78
      0100099DH   LINE      CODE     ---       #79
      010009A1H   LINE      CODE     ---       #80
      010009A1H   LINE      CODE     ---       #81
      010009A7H   LINE      CODE     ---       #83
      010009B2H   LINE      CODE     ---       #84
      010009B2H   LINE      CODE     ---       #85
      010009B4H   LINE      CODE     ---       #86
      010009CCH   LINE      CODE     ---       #87
      010009D0H   LINE      CODE     ---       #89
      010009DBH   LINE      CODE     ---       #90
      010009DBH   LINE      CODE     ---       #91
      010009DDH   LINE      CODE     ---       #92
      010009E7H   LINE      CODE     ---       #93
      010009E7H   LINE      CODE     ---       #94
      010009EFH   LINE      CODE     ---       #95
      010009F8H   LINE      CODE     ---       #97
      01000A03H   LINE      CODE     ---       #98
      01000A03H   LINE      CODE     ---       #99
      01000A05H   LINE      CODE     ---       #100
      01000A05H   LINE      CODE     ---       #101
      01000A05H   LINE      CODE     ---       #102
      01000A05H   LINE      CODE     ---       #104
      01000A05H   LINE      CODE     ---       #105
LX51 LINKER/LOCATER V4.41                                                             12/15/2021  14:01:25  PAGE 30


      01000A05H   LINE      CODE     ---       #106
      ---         BLOCKEND  ---      ---       LVL=0

      01000EEBH   BLOCK     CODE     ---       LVL=0
      01000EEBH   LINE      CODE     ---       #108
      01000F08H   LINE      CODE     ---       #110
      01000F0EH   LINE      CODE     ---       #111
      01000F0EH   LINE      CODE     ---       #112
      01000F11H   LINE      CODE     ---       #113
      01000F11H   LINE      CODE     ---       #114
      01000F13H   LINE      CODE     ---       #115
      01000F13H   LINE      CODE     ---       #116
      01000F16H   LINE      CODE     ---       #117
      01000F19H   LINE      CODE     ---       #118
      01000F19H   LINE      CODE     ---       #120
      01000F1CH   LINE      CODE     ---       #122
      01000F1FH   LINE      CODE     ---       #123
      ---         BLOCKEND  ---      ---       LVL=0

      01000042H   BLOCK     CODE     ---       LVL=0
      01000042H   LINE      CODE     ---       #124
      01000042H   LINE      CODE     ---       #125
      ---         BLOCKEND  ---      ---       LVL=0

      01000046H   BLOCK     CODE     ---       LVL=0
      01000046H   LINE      CODE     ---       #126
      01000046H   LINE      CODE     ---       #127
      ---         BLOCKEND  ---      ---       LVL=0

      01000047H   BLOCK     CODE     ---       LVL=0
      01000047H   LINE      CODE     ---       #128
      01000047H   LINE      CODE     ---       #129
      ---         BLOCKEND  ---      ---       LVL=0

      01000048H   BLOCK     CODE     ---       LVL=0
      01000048H   LINE      CODE     ---       #130
      01000048H   LINE      CODE     ---       #131
      ---         BLOCKEND  ---      ---       LVL=0

      01000049H   BLOCK     CODE     ---       LVL=0
      01000049H   LINE      CODE     ---       #133
      01000049H   LINE      CODE     ---       #134
      ---         BLOCKEND  ---      ---       LVL=0

      0100004AH   BLOCK     CODE     ---       LVL=0
      0100004AH   LINE      CODE     ---       #136
      0100004AH   LINE      CODE     ---       #137
      ---         BLOCKEND  ---      ---       LVL=0

      ---         MODULE    ---      ---       KEY
      0100107DH   PUBLIC    CODE     ---       KeyAnaly2
      010010A1H   PUBLIC    CODE     ---       KeyChattering2
      010000B6H   PUBLIC    CODE     ---       KeyAnaly1
      01001059H   PUBLIC    CODE     ---       KeyChattering1
      010010E9H   PUBLIC    CODE     ---       Key_Proc1
      01000D92H   PUBLIC    CODE     ---       KeyAnaly
      01000FBDH   PUBLIC    CODE     ---       KeyChattering
      010007F5H   PUBLIC    CODE     ---       Key_Proc
      00000080H   SFRSYM    DATA     BYTE      P0
      00000088H   SFRSYM    DATA     BYTE      P1
      00000086H   SFRSYM    DATA     BYTE      LVICR
      00000090H   SFRSYM    DATA     BYTE      P2
      000000B5H   SFRSYM    DATA     BYTE      SPICR
      00000098H   SFRSYM    DATA     BYTE      P3
      000000B6H   SFRSYM    DATA     BYTE      SPIDR
LX51 LINKER/LOCATER V4.41                                                             12/15/2021  14:01:25  PAGE 31


      000000E2H   SFRSYM    DATA     BYTE      UARTCR1
      000000E3H   SFRSYM    DATA     BYTE      UARTCR2
      0000008DH   SFRSYM    DATA     BYTE      WDTCR
      000000E4H   SFRSYM    DATA     BYTE      UARTCR3
      0000008EH   SFRSYM    DATA     BYTE      WDTDR
      000000DDH   SFRSYM    DATA     BYTE      ADWIFRH
      00000097H   SFRSYM    DATA     BYTE      BUZCR
      0000008FH   SFRSYM    DATA     BYTE      BUZDR
      000000D8H   SFRSYM    DATA     BYTE      LVRCR
      000000DCH   SFRSYM    DATA     BYTE      ADWIFRL
      00000085H   SFRSYM    DATA     BYTE      DPH1
      000000A8H   SFRSYM    DATA     BYTE      IE
      00000084H   SFRSYM    DATA     BYTE      DPL1
      00000089H   SFRSYM    DATA     BYTE      WTCNT
      000000B7H   SFRSYM    DATA     BYTE      SPISR
      000000E8H   SFRSYM    DATA     BYTE      RSTFR
      000000A2H   SFRSYM    DATA     BYTE      EO
      00000091H   SFRSYM    DATA     BYTE      P0OD
      00000092H   SFRSYM    DATA     BYTE      P1OD
      00000093H   SFRSYM    DATA     BYTE      P2OD
      00000094H   SFRSYM    DATA     BYTE      P3OD
      000000B8H   SFRSYM    DATA     BYTE      IP
      000000A1H   SFRSYM    DATA     BYTE      P0IO
      000000B2H   SFRSYM    DATA     BYTE      T0CR
      000000B1H   SFRSYM    DATA     BYTE      P1IO
      000000B4H   SFRSYM    DATA     BYTE      T0DR
      000000B9H   SFRSYM    DATA     BYTE      P2IO
      000000C1H   SFRSYM    DATA     BYTE      P3IO
      00000081H   SFRSYM    DATA     BYTE      SP
      000000FDH   SFRSYM    DATA     BYTE      FIDR
      000000BDH   SFRSYM    DATA     BYTE      T1ADRH
      000000ACH   SFRSYM    DATA     BYTE      P0PU
      0000009DH   SFRSYM    DATA     BYTE      ADCCRH
      000000C5H   SFRSYM    DATA     BYTE      T2ADRH
      000000BFH   SFRSYM    DATA     BYTE      T1BDRH
      000000ADH   SFRSYM    DATA     BYTE      P1PU
      0000009FH   SFRSYM    DATA     BYTE      ADCDRH
      000000C7H   SFRSYM    DATA     BYTE      T2BDRH
      000000AEH   SFRSYM    DATA     BYTE      P2PU
      000000FEH   SFRSYM    DATA     BYTE      FMCR
      000000AFH   SFRSYM    DATA     BYTE      P3PU
      000000BCH   SFRSYM    DATA     BYTE      T1ADRL
      0000009CH   SFRSYM    DATA     BYTE      ADCCRL
      000000C4H   SFRSYM    DATA     BYTE      T2ADRL
      000000BEH   SFRSYM    DATA     BYTE      T1BDRL
      0000009EH   SFRSYM    DATA     BYTE      ADCDRL
      000000C6H   SFRSYM    DATA     BYTE      T2BDRL
      0000008AH   SFRSYM    DATA     BYTE      SCCR
      000000A6H   SFRSYM    DATA     BYTE      EIPOL1
      000000A7H   SFRSYM    DATA     BYTE      EIPOL2
      000000A0H   SFRSYM    DATA     BYTE      IIFLAG
      00000080H   SFRSYM    DATA     BIT       P00
      00000087H   SFRSYM    DATA     BYTE      PCON
      00000088H   SFRSYM    DATA     BIT       P10
      00000080H.1 SFRSYM    DATA     BIT       P01
      00000090H   SFRSYM    DATA     BIT       P20
      00000088H.1 SFRSYM    DATA     BIT       P11
      00000080H.2 SFRSYM    DATA     BIT       P02
      00000098H   SFRSYM    DATA     BIT       P30
      00000090H.1 SFRSYM    DATA     BIT       P21
      00000088H.2 SFRSYM    DATA     BIT       P12
      00000080H.3 SFRSYM    DATA     BIT       P03
      00000098H.1 SFRSYM    DATA     BIT       P31
      00000090H.2 SFRSYM    DATA     BIT       P22
      00000088H.3 SFRSYM    DATA     BIT       P13
LX51 LINKER/LOCATER V4.41                                                             12/15/2021  14:01:25  PAGE 32


      00000080H.4 SFRSYM    DATA     BIT       P04
      00000098H.2 SFRSYM    DATA     BIT       P32
      00000090H.3 SFRSYM    DATA     BIT       P23
      00000088H.4 SFRSYM    DATA     BIT       P14
      00000080H.5 SFRSYM    DATA     BIT       P05
      000000D5H   SFRSYM    DATA     BYTE      P1FSRH
      00000098H.3 SFRSYM    DATA     BIT       P33
      00000090H.4 SFRSYM    DATA     BIT       P24
      00000088H.5 SFRSYM    DATA     BIT       P15
      00000080H.6 SFRSYM    DATA     BIT       P06
      00000098H.4 SFRSYM    DATA     BIT       P34
      00000090H.5 SFRSYM    DATA     BIT       P25
      00000088H.6 SFRSYM    DATA     BIT       P16
      00000080H.7 SFRSYM    DATA     BIT       P07
      00000098H.5 SFRSYM    DATA     BIT       P35
      00000090H.6 SFRSYM    DATA     BIT       P26
      00000088H.7 SFRSYM    DATA     BIT       P17
      00000098H.6 SFRSYM    DATA     BIT       P36
      00000090H.7 SFRSYM    DATA     BIT       P27
      000000FAH   SFRSYM    DATA     BYTE      FSADRH
      000000D4H   SFRSYM    DATA     BYTE      P1FSRL
      00000098H.7 SFRSYM    DATA     BIT       P37
      000000DFH   SFRSYM    DATA     BYTE      P12DB
      000000DEH   SFRSYM    DATA     BYTE      P03DB
      000000F7H   SFRSYM    DATA     BYTE      ADWCRH
      000000FCH   SFRSYM    DATA     BYTE      FSADRL
      000000FBH   SFRSYM    DATA     BYTE      FSADRM
      000000F6H   SFRSYM    DATA     BYTE      ADWCRL
      000000A9H   SFRSYM    DATA     BYTE      IE1
      000000AAH   SFRSYM    DATA     BYTE      IE2
      000000F0H   SFRSYM    DATA     BYTE      B
      00000096H   SFRSYM    DATA     BYTE      WTCR
      000000ABH   SFRSYM    DATA     BYTE      IE3
      00000089H   SFRSYM    DATA     BYTE      WTDR
      000000E6H   SFRSYM    DATA     BYTE      UARTBD
      0000008CH   SFRSYM    DATA     BYTE      BITCNT
      000000E0H   SFRSYM    DATA     BYTE      ACC
      000000F8H   SFRSYM    DATA     BYTE      IP1
      000000E9H   SFRSYM    DATA     BYTE      I2CCR
      000000E7H   SFRSYM    DATA     BYTE      UARTDR
      000000ECH   SFRSYM    DATA     BYTE      I2CDR
      000000EBH   SFRSYM    DATA     BYTE      I2CSAR0
      0000008EH   SFRSYM    DATA     BYTE      WDTCNT
      000000F1H   SFRSYM    DATA     BYTE      I2CSAR1
      000000C0H   SFRSYM    DATA     BYTE      EIFLAG0
      000000B0H   SFRSYM    DATA     BYTE      EIFLAG1
      00000083H   SFRSYM    DATA     BYTE      DPH
      000000BCH   SFRSYM    DATA     WORD      T1ADR
      000000C4H   SFRSYM    DATA     WORD      T2ADR
      000000BEH   SFRSYM    DATA     WORD      T1BDR
      000000B4H   SFRSYM    DATA     BYTE      T0CDR
      000000C6H   SFRSYM    DATA     WORD      T2BDR
      00000082H   SFRSYM    DATA     BYTE      DPL
      000000BBH   SFRSYM    DATA     BYTE      T1CRH
      000000EAH   SFRSYM    DATA     BYTE      I2CSR
      000000C3H   SFRSYM    DATA     BYTE      T2CRH
      000000E5H   SFRSYM    DATA     BYTE      UARTST
      000000BAH   SFRSYM    DATA     BYTE      T1CRL
      000000C2H   SFRSYM    DATA     BYTE      T2CRL
      000000B3H   SFRSYM    DATA     BYTE      T0CNT
      000000D3H   SFRSYM    DATA     BYTE      P0FSR
      000000D6H   SFRSYM    DATA     BYTE      P2FSR
      000000D7H   SFRSYM    DATA     BYTE      P3FSR
      000000EFH   SFRSYM    DATA     BYTE      I2CSCHR
      000000EDH   SFRSYM    DATA     BYTE      I2CSDHR
LX51 LINKER/LOCATER V4.41                                                             12/15/2021  14:01:25  PAGE 33


      000000A5H   SFRSYM    DATA     BYTE      EIPOL0H
      000000EEH   SFRSYM    DATA     BYTE      I2CSCLR
      000000F2H   SFRSYM    DATA     BYTE      ADWRCR0
      0000008BH   SFRSYM    DATA     BYTE      BITCR
      000000F3H   SFRSYM    DATA     BYTE      ADWRCR1
      000000F4H   SFRSYM    DATA     BYTE      ADWRCR2
      000000A4H   SFRSYM    DATA     BYTE      EIPOL0L
      000000F5H   SFRSYM    DATA     BYTE      ADWRCR3
      000000D0H   SFRSYM    DATA     BYTE      PSW
      000000C8H   SFRSYM    DATA     BYTE      OSCCR

      010007F5H   BLOCK     CODE     ---       LVL=0
      010007F5H   LINE      CODE     ---       #42
      010007F5H   LINE      CODE     ---       #43
      010007F5H   LINE      CODE     ---       #44
      010007FEH   LINE      CODE     ---       #45
      ---         BLOCKEND  ---      ---       LVL=0

      01000FBDH   BLOCK     CODE     ---       LVL=0
      01000FBDH   BLOCK     CODE     NEAR LAB  LVL=1
      00000007H   SYMBOL    DATA     BYTE      x
      ---         BLOCKEND  ---      ---       LVL=1
      01000FBDH   LINE      CODE     ---       #47
      01000FBDH   LINE      CODE     ---       #48
      01000FBDH   LINE      CODE     ---       #51
      01000FC4H   LINE      CODE     ---       #53
      01000FC7H   LINE      CODE     ---       #54
      01000FCAH   LINE      CODE     ---       #55
      01000FCDH   LINE      CODE     ---       #57
      01000FD4H   LINE      CODE     ---       #59
      01000FD6H   LINE      CODE     ---       #60
      01000FDCH   LINE      CODE     ---       #62
      01000FDFH   LINE      CODE     ---       #63
      01000FE2H   LINE      CODE     ---       #64
      01000FE4H   LINE      CODE     ---       #65
      01000FEAH   LINE      CODE     ---       #66
      01000FEAH   LINE      CODE     ---       #67
      01000FECH   LINE      CODE     ---       #68
      01000FF0H   LINE      CODE     ---       #69
      01000FF0H   LINE      CODE     ---       #70
      01000FF5H   LINE      CODE     ---       #71
      ---         BLOCKEND  ---      ---       LVL=0

      01000D92H   BLOCK     CODE     ---       LVL=0
      01000D92H   LINE      CODE     ---       #73
      01000D92H   LINE      CODE     ---       #74
      01000D92H   LINE      CODE     ---       #75
      01000D98H   LINE      CODE     ---       #76
      01000D9EH   LINE      CODE     ---       #78
      01000DA7H   LINE      CODE     ---       #79
      01000DA7H   LINE      CODE     ---       #80
      01000DA7H   LINE      CODE     ---       #81
      01000DADH   LINE      CODE     ---       #82
      01000DB1H   LINE      CODE     ---       #83
      01000DB2H   LINE      CODE     ---       #85
      01000DB2H   LINE      CODE     ---       #86
      01000DBEH   LINE      CODE     ---       #87
      01000DC4H   LINE      CODE     ---       #89
      01000DC8H   LINE      CODE     ---       #90
      01000DCDH   LINE      CODE     ---       #91
      01000DD0H   LINE      CODE     ---       #92
      01000DD3H   LINE      CODE     ---       #93
      01000DD6H   LINE      CODE     ---       #94
      01000DDBH   LINE      CODE     ---       #95
      01000DDEH   LINE      CODE     ---       #97
LX51 LINKER/LOCATER V4.41                                                             12/15/2021  14:01:25  PAGE 34


      01000DE8H   LINE      CODE     ---       #99
      01000DE8H   LINE      CODE     ---       #100
      01000DECH   LINE      CODE     ---       #101
      01000DECH   LINE      CODE     ---       #102
      01000DECH   LINE      CODE     ---       #104
      01000DECH   LINE      CODE     ---       #105
      01000DECH   LINE      CODE     ---       #106
      01000DECH   LINE      CODE     ---       #107
      ---         BLOCKEND  ---      ---       LVL=0

      010010E9H   BLOCK     CODE     ---       LVL=0
      010010E9H   LINE      CODE     ---       #110
      010010E9H   LINE      CODE     ---       #111
      010010E9H   LINE      CODE     ---       #112
      010010F2H   LINE      CODE     ---       #113
      010010FBH   LINE      CODE     ---       #114
      ---         BLOCKEND  ---      ---       LVL=0

      01001059H   BLOCK     CODE     ---       LVL=0
      01001059H   BLOCK     CODE     NEAR LAB  LVL=1
      00000007H   SYMBOL    DATA     BYTE      x
      ---         BLOCKEND  ---      ---       LVL=1
      01001059H   LINE      CODE     ---       #123
      01001059H   LINE      CODE     ---       #124
      01001059H   LINE      CODE     ---       #127
      01001060H   LINE      CODE     ---       #129
      01001062H   LINE      CODE     ---       #130
      01001066H   LINE      CODE     ---       #131
      01001068H   LINE      CODE     ---       #132
      0100106BH   LINE      CODE     ---       #134
      01001071H   LINE      CODE     ---       #135
      01001071H   LINE      CODE     ---       #136
      01001073H   LINE      CODE     ---       #137
      01001077H   LINE      CODE     ---       #138
      01001077H   LINE      CODE     ---       #139
      0100107CH   LINE      CODE     ---       #140
      ---         BLOCKEND  ---      ---       LVL=0

      010000B6H   BLOCK     CODE     ---       LVL=0
      010000B6H   LINE      CODE     ---       #142
      010000B6H   LINE      CODE     ---       #143
      010000B6H   LINE      CODE     ---       #144
      010000BCH   LINE      CODE     ---       #146
      010000CAH   LINE      CODE     ---       #147
      010000CAH   LINE      CODE     ---       #148
      010000CAH   LINE      CODE     ---       #155
      010000CEH   LINE      CODE     ---       #156
      010000D4H   LINE      CODE     ---       #157
      010000DAH   LINE      CODE     ---       #159
      010000DFH   LINE      CODE     ---       #160
      010000DFH   LINE      CODE     ---       #161
      010000E5H   LINE      CODE     ---       #162
      010000EEH   LINE      CODE     ---       #163
      010000EEH   LINE      CODE     ---       #164
      010000F4H   LINE      CODE     ---       #165
      010000F8H   LINE      CODE     ---       #166
      010000FBH   LINE      CODE     ---       #167
      010000FBH   LINE      CODE     ---       #168
      010000FBH   LINE      CODE     ---       #169
      01000101H   LINE      CODE     ---       #170
      01000102H   LINE      CODE     ---       #172
      01000102H   LINE      CODE     ---       #173
      01000113H   LINE      CODE     ---       #175
      01000119H   LINE      CODE     ---       #176
      01000119H   LINE      CODE     ---       #177
LX51 LINKER/LOCATER V4.41                                                             12/15/2021  14:01:25  PAGE 35


      01000124H   LINE      CODE     ---       #178
      01000124H   LINE      CODE     ---       #179
      01000124H   LINE      CODE     ---       #180
      01000124H   LINE      CODE     ---       #181
      01000124H   LINE      CODE     ---       #182
      01000124H   LINE      CODE     ---       #183
      01000124H   LINE      CODE     ---       #184
      01000126H   LINE      CODE     ---       #185
      01000126H   LINE      CODE     ---       #187
      01000133H   LINE      CODE     ---       #188
      01000133H   LINE      CODE     ---       #189
      01000133H   LINE      CODE     ---       #190
      01000133H   LINE      CODE     ---       #191
      01000133H   LINE      CODE     ---       #192
      01000133H   LINE      CODE     ---       #193
      01000133H   LINE      CODE     ---       #194
      01000133H   LINE      CODE     ---       #195
      01000133H   LINE      CODE     ---       #196
      01000133H   LINE      CODE     ---       #197
      01000135H   LINE      CODE     ---       #198
      01000135H   LINE      CODE     ---       #200
      01000142H   LINE      CODE     ---       #202
      01000148H   LINE      CODE     ---       #204
      01000152H   LINE      CODE     ---       #205
      01000158H   LINE      CODE     ---       #207
      01000164H   LINE      CODE     ---       #208
      01000164H   LINE      CODE     ---       #209
      01000168H   LINE      CODE     ---       #210
      0100016AH   LINE      CODE     ---       #211
      0100016AH   LINE      CODE     ---       #212
      0100016EH   LINE      CODE     ---       #213
      01000171H   LINE      CODE     ---       #214
      01000173H   LINE      CODE     ---       #215
      01000179H   LINE      CODE     ---       #216
      01000179H   LINE      CODE     ---       #217
      01000179H   LINE      CODE     ---       #219
      0100017BH   LINE      CODE     ---       #220
      0100017BH   LINE      CODE     ---       #221
      01000192H   LINE      CODE     ---       #222
      01000192H   LINE      CODE     ---       #223
      0100019CH   LINE      CODE     ---       #224
      0100019CH   LINE      CODE     ---       #225
      010001A6H   LINE      CODE     ---       #226
      010001B1H   LINE      CODE     ---       #227
      010001B1H   LINE      CODE     ---       #228
      010001B7H   LINE      CODE     ---       #229
      010001BDH   LINE      CODE     ---       #230
      010001C1H   LINE      CODE     ---       #231
      010001C1H   LINE      CODE     ---       #232
      010001C1H   LINE      CODE     ---       #234
      010001C2H   LINE      CODE     ---       #235
      010001C2H   LINE      CODE     ---       #237
      010001C8H   LINE      CODE     ---       #238
      010001C8H   LINE      CODE     ---       #239
      010001D3H   LINE      CODE     ---       #240
      010001D9H   LINE      CODE     ---       #241
      010001DFH   LINE      CODE     ---       #242
      010001E5H   LINE      CODE     ---       #243
      010001E9H   LINE      CODE     ---       #244
      010001ECH   LINE      CODE     ---       #245
      010001F0H   LINE      CODE     ---       #246
      010001F1H   LINE      CODE     ---       #247
      010001F1H   LINE      CODE     ---       #249
      010001FEH   LINE      CODE     ---       #250
      010001FEH   LINE      CODE     ---       #251
LX51 LINKER/LOCATER V4.41                                                             12/15/2021  14:01:25  PAGE 36


      01000204H   LINE      CODE     ---       #252
      0100020AH   LINE      CODE     ---       #253
      0100020EH   LINE      CODE     ---       #254
      01000212H   LINE      CODE     ---       #255
      01000215H   LINE      CODE     ---       #256
      0100021AH   LINE      CODE     ---       #257
      0100021EH   LINE      CODE     ---       #258
      01000220H   LINE      CODE     ---       #259
      01000221H   LINE      CODE     ---       #260
      01000221H   LINE      CODE     ---       #262
      0100022CH   LINE      CODE     ---       #264
      01000233H   LINE      CODE     ---       #265
      01000233H   LINE      CODE     ---       #266
      0100023BH   LINE      CODE     ---       #267
      01000241H   LINE      CODE     ---       #268
      0100025CH   LINE      CODE     ---       #270
      01000262H   LINE      CODE     ---       #271
      01000266H   LINE      CODE     ---       #272
      01000269H   LINE      CODE     ---       #273
      0100026BH   LINE      CODE     ---       #274
      0100026DH   LINE      CODE     ---       #275
      0100026DH   LINE      CODE     ---       #276
      01000273H   LINE      CODE     ---       #278
      0100027BH   LINE      CODE     ---       #279
      01000281H   LINE      CODE     ---       #281
      0100028CH   LINE      CODE     ---       #282
      0100028CH   LINE      CODE     ---       #283
      01000290H   LINE      CODE     ---       #284
      01000292H   LINE      CODE     ---       #285
      01000292H   LINE      CODE     ---       #286
      01000296H   LINE      CODE     ---       #287
      01000299H   LINE      CODE     ---       #288
      0100029BH   LINE      CODE     ---       #289
      010002A1H   LINE      CODE     ---       #290
      010002A1H   LINE      CODE     ---       #291
      010002A1H   LINE      CODE     ---       #292
      010002A7H   LINE      CODE     ---       #293
      010002A7H   LINE      CODE     ---       #295
      010002A7H   LINE      CODE     ---       #296
      010002A7H   LINE      CODE     ---       #297
      010002A7H   LINE      CODE     ---       #298
      ---         BLOCKEND  ---      ---       LVL=0

      010010A1H   BLOCK     CODE     ---       LVL=0
      010010A1H   BLOCK     CODE     NEAR LAB  LVL=1
      00000007H   SYMBOL    DATA     BYTE      x
      ---         BLOCKEND  ---      ---       LVL=1
      010010A1H   LINE      CODE     ---       #307
      010010A1H   LINE      CODE     ---       #308
      010010A1H   LINE      CODE     ---       #311
      010010A8H   LINE      CODE     ---       #313
      010010AAH   LINE      CODE     ---       #314
      010010B0H   LINE      CODE     ---       #316
      010010B6H   LINE      CODE     ---       #317
      010010B6H   LINE      CODE     ---       #318
      010010B8H   LINE      CODE     ---       #319
      010010BCH   LINE      CODE     ---       #320
      010010BCH   LINE      CODE     ---       #321
      010010C1H   LINE      CODE     ---       #322
      ---         BLOCKEND  ---      ---       LVL=0

      0100107DH   BLOCK     CODE     ---       LVL=0
      0100107DH   LINE      CODE     ---       #324
      0100107DH   LINE      CODE     ---       #325
      0100107DH   LINE      CODE     ---       #326
LX51 LINKER/LOCATER V4.41                                                             12/15/2021  14:01:25  PAGE 37


      01001083H   LINE      CODE     ---       #328
      0100108CH   LINE      CODE     ---       #330
      0100108CH   LINE      CODE     ---       #331
      01001090H   LINE      CODE     ---       #332
      01001094H   LINE      CODE     ---       #333
      0100109AH   LINE      CODE     ---       #334
      010010A0H   LINE      CODE     ---       #335
      010010A0H   LINE      CODE     ---       #336
      ---         BLOCKEND  ---      ---       LVL=0

      ---         MODULE    ---      ---       UTIL
      010010FCH   PUBLIC    CODE     ---       _Lflash_erase
      01000F3AH   PUBLIC    CODE     ---       _Lflash_write
      01000E98H   PUBLIC    CODE     ---       _Lflash_read
      020000F9H   PUBLIC    XDATA    BYTE      ?_CodeFlash_Read?BYTE
      01000D21H   PUBLIC    CODE     ---       _CodeFlash_Read
      020000F5H   PUBLIC    XDATA    BYTE      ?_CodeFlash_Write?BYTE
      010005E8H   PUBLIC    CODE     ---       _CodeFlash_Write
      01000BC7H   PUBLIC    CODE     ---       _CodeFlash_Erase
      01000E44H   PUBLIC    CODE     ---       EEPROM_Proc
      00000080H   SFRSYM    DATA     BYTE      P0
      00000088H   SFRSYM    DATA     BYTE      P1
      00000086H   SFRSYM    DATA     BYTE      LVICR
      00000090H   SFRSYM    DATA     BYTE      P2
      000000B5H   SFRSYM    DATA     BYTE      SPICR
      00000098H   SFRSYM    DATA     BYTE      P3
      000000B6H   SFRSYM    DATA     BYTE      SPIDR
      000000E2H   SFRSYM    DATA     BYTE      UARTCR1
      000000E3H   SFRSYM    DATA     BYTE      UARTCR2
      0000008DH   SFRSYM    DATA     BYTE      WDTCR
      000000E4H   SFRSYM    DATA     BYTE      UARTCR3
      0000008EH   SFRSYM    DATA     BYTE      WDTDR
      000000DDH   SFRSYM    DATA     BYTE      ADWIFRH
      00000097H   SFRSYM    DATA     BYTE      BUZCR
      0000008FH   SFRSYM    DATA     BYTE      BUZDR
      000000D8H   SFRSYM    DATA     BYTE      LVRCR
      000000DCH   SFRSYM    DATA     BYTE      ADWIFRL
      00000085H   SFRSYM    DATA     BYTE      DPH1
      000000A8H   SFRSYM    DATA     BYTE      IE
      00000084H   SFRSYM    DATA     BYTE      DPL1
      00000089H   SFRSYM    DATA     BYTE      WTCNT
      000000B7H   SFRSYM    DATA     BYTE      SPISR
      000000E8H   SFRSYM    DATA     BYTE      RSTFR
      000000A2H   SFRSYM    DATA     BYTE      EO
      00000091H   SFRSYM    DATA     BYTE      P0OD
      00000092H   SFRSYM    DATA     BYTE      P1OD
      00000093H   SFRSYM    DATA     BYTE      P2OD
      00000094H   SFRSYM    DATA     BYTE      P3OD
      000000B8H   SFRSYM    DATA     BYTE      IP
      000000A1H   SFRSYM    DATA     BYTE      P0IO
      000000B2H   SFRSYM    DATA     BYTE      T0CR
      000000B1H   SFRSYM    DATA     BYTE      P1IO
      000000B4H   SFRSYM    DATA     BYTE      T0DR
      000000B9H   SFRSYM    DATA     BYTE      P2IO
      000000C1H   SFRSYM    DATA     BYTE      P3IO
      00000081H   SFRSYM    DATA     BYTE      SP
      000000FDH   SFRSYM    DATA     BYTE      FIDR
      000000BDH   SFRSYM    DATA     BYTE      T1ADRH
      000000ACH   SFRSYM    DATA     BYTE      P0PU
      0000009DH   SFRSYM    DATA     BYTE      ADCCRH
      000000C5H   SFRSYM    DATA     BYTE      T2ADRH
      000000BFH   SFRSYM    DATA     BYTE      T1BDRH
      000000ADH   SFRSYM    DATA     BYTE      P1PU
      0000009FH   SFRSYM    DATA     BYTE      ADCDRH
      000000C7H   SFRSYM    DATA     BYTE      T2BDRH
LX51 LINKER/LOCATER V4.41                                                             12/15/2021  14:01:25  PAGE 38


      000000AEH   SFRSYM    DATA     BYTE      P2PU
      000000FEH   SFRSYM    DATA     BYTE      FMCR
      000000AFH   SFRSYM    DATA     BYTE      P3PU
      000000BCH   SFRSYM    DATA     BYTE      T1ADRL
      0000009CH   SFRSYM    DATA     BYTE      ADCCRL
      000000C4H   SFRSYM    DATA     BYTE      T2ADRL
      000000BEH   SFRSYM    DATA     BYTE      T1BDRL
      0000009EH   SFRSYM    DATA     BYTE      ADCDRL
      000000C6H   SFRSYM    DATA     BYTE      T2BDRL
      0000008AH   SFRSYM    DATA     BYTE      SCCR
      000000A6H   SFRSYM    DATA     BYTE      EIPOL1
      000000A7H   SFRSYM    DATA     BYTE      EIPOL2
      000000A0H   SFRSYM    DATA     BYTE      IIFLAG
      00000080H   SFRSYM    DATA     BIT       P00
      00000087H   SFRSYM    DATA     BYTE      PCON
      00000088H   SFRSYM    DATA     BIT       P10
      00000080H.1 SFRSYM    DATA     BIT       P01
      00000090H   SFRSYM    DATA     BIT       P20
      00000088H.1 SFRSYM    DATA     BIT       P11
      00000080H.2 SFRSYM    DATA     BIT       P02
      00000098H   SFRSYM    DATA     BIT       P30
      00000090H.1 SFRSYM    DATA     BIT       P21
      00000088H.2 SFRSYM    DATA     BIT       P12
      00000080H.3 SFRSYM    DATA     BIT       P03
      00000098H.1 SFRSYM    DATA     BIT       P31
      00000090H.2 SFRSYM    DATA     BIT       P22
      00000088H.3 SFRSYM    DATA     BIT       P13
      00000080H.4 SFRSYM    DATA     BIT       P04
      00000098H.2 SFRSYM    DATA     BIT       P32
      00000090H.3 SFRSYM    DATA     BIT       P23
      00000088H.4 SFRSYM    DATA     BIT       P14
      00000080H.5 SFRSYM    DATA     BIT       P05
      000000D5H   SFRSYM    DATA     BYTE      P1FSRH
      00000098H.3 SFRSYM    DATA     BIT       P33
      00000090H.4 SFRSYM    DATA     BIT       P24
      00000088H.5 SFRSYM    DATA     BIT       P15
      00000080H.6 SFRSYM    DATA     BIT       P06
      00000098H.4 SFRSYM    DATA     BIT       P34
      00000090H.5 SFRSYM    DATA     BIT       P25
      00000088H.6 SFRSYM    DATA     BIT       P16
      00000080H.7 SFRSYM    DATA     BIT       P07
      00000098H.5 SFRSYM    DATA     BIT       P35
      00000090H.6 SFRSYM    DATA     BIT       P26
      00000088H.7 SFRSYM    DATA     BIT       P17
      00000098H.6 SFRSYM    DATA     BIT       P36
      00000090H.7 SFRSYM    DATA     BIT       P27
      000000FAH   SFRSYM    DATA     BYTE      FSADRH
      000000D4H   SFRSYM    DATA     BYTE      P1FSRL
      00000098H.7 SFRSYM    DATA     BIT       P37
      000000DFH   SFRSYM    DATA     BYTE      P12DB
      000000DEH   SFRSYM    DATA     BYTE      P03DB
      000000F7H   SFRSYM    DATA     BYTE      ADWCRH
      000000FCH   SFRSYM    DATA     BYTE      FSADRL
      000000FBH   SFRSYM    DATA     BYTE      FSADRM
      000000F6H   SFRSYM    DATA     BYTE      ADWCRL
      000000A9H   SFRSYM    DATA     BYTE      IE1
      000000AAH   SFRSYM    DATA     BYTE      IE2
      000000F0H   SFRSYM    DATA     BYTE      B
      00000096H   SFRSYM    DATA     BYTE      WTCR
      000000ABH   SFRSYM    DATA     BYTE      IE3
      00000089H   SFRSYM    DATA     BYTE      WTDR
      000000E6H   SFRSYM    DATA     BYTE      UARTBD
      0000008CH   SFRSYM    DATA     BYTE      BITCNT
      000000E0H   SFRSYM    DATA     BYTE      ACC
      000000F8H   SFRSYM    DATA     BYTE      IP1
LX51 LINKER/LOCATER V4.41                                                             12/15/2021  14:01:25  PAGE 39


      000000E9H   SFRSYM    DATA     BYTE      I2CCR
      000000E7H   SFRSYM    DATA     BYTE      UARTDR
      000000ECH   SFRSYM    DATA     BYTE      I2CDR
      000000EBH   SFRSYM    DATA     BYTE      I2CSAR0
      0000008EH   SFRSYM    DATA     BYTE      WDTCNT
      000000F1H   SFRSYM    DATA     BYTE      I2CSAR1
      000000C0H   SFRSYM    DATA     BYTE      EIFLAG0
      000000B0H   SFRSYM    DATA     BYTE      EIFLAG1
      00000083H   SFRSYM    DATA     BYTE      DPH
      000000BCH   SFRSYM    DATA     WORD      T1ADR
      000000C4H   SFRSYM    DATA     WORD      T2ADR
      000000BEH   SFRSYM    DATA     WORD      T1BDR
      000000B4H   SFRSYM    DATA     BYTE      T0CDR
      000000C6H   SFRSYM    DATA     WORD      T2BDR
      00000082H   SFRSYM    DATA     BYTE      DPL
      000000BBH   SFRSYM    DATA     BYTE      T1CRH
      000000EAH   SFRSYM    DATA     BYTE      I2CSR
      000000C3H   SFRSYM    DATA     BYTE      T2CRH
      000000E5H   SFRSYM    DATA     BYTE      UARTST
      000000BAH   SFRSYM    DATA     BYTE      T1CRL
      000000C2H   SFRSYM    DATA     BYTE      T2CRL
      000000B3H   SFRSYM    DATA     BYTE      T0CNT
      000000D3H   SFRSYM    DATA     BYTE      P0FSR
      000000D6H   SFRSYM    DATA     BYTE      P2FSR
      000000D7H   SFRSYM    DATA     BYTE      P3FSR
      000000EFH   SFRSYM    DATA     BYTE      I2CSCHR
      000000EDH   SFRSYM    DATA     BYTE      I2CSDHR
      000000A5H   SFRSYM    DATA     BYTE      EIPOL0H
      000000EEH   SFRSYM    DATA     BYTE      I2CSCLR
      000000F2H   SFRSYM    DATA     BYTE      ADWRCR0
      0000008BH   SFRSYM    DATA     BYTE      BITCR
      000000F3H   SFRSYM    DATA     BYTE      ADWRCR1
      000000F4H   SFRSYM    DATA     BYTE      ADWRCR2
      000000A4H   SFRSYM    DATA     BYTE      EIPOL0L
      000000F5H   SFRSYM    DATA     BYTE      ADWRCR3
      000000D0H   SFRSYM    DATA     BYTE      PSW
      000000C8H   SFRSYM    DATA     BYTE      OSCCR

      01000E44H   BLOCK     CODE     ---       LVL=0
      01000E44H   LINE      CODE     ---       #57
      01000E44H   LINE      CODE     ---       #58
      01000E44H   LINE      CODE     ---       #59
      01000E54H   LINE      CODE     ---       #60
      01000E54H   LINE      CODE     ---       #61
      01000E5BH   LINE      CODE     ---       #62
      01000E62H   LINE      CODE     ---       #64
      01000E68H   LINE      CODE     ---       #66
      01000E6EH   LINE      CODE     ---       #67
      01000E71H   LINE      CODE     ---       #68
      01000E74H   LINE      CODE     ---       #70
      01000E7FH   LINE      CODE     ---       #71
      01000E80H   LINE      CODE     ---       #72
      01000E81H   LINE      CODE     ---       #73
      01000E82H   LINE      CODE     ---       #74
      01000E8DH   LINE      CODE     ---       #75
      01000E8EH   LINE      CODE     ---       #76
      01000E8FH   LINE      CODE     ---       #77
      01000E90H   LINE      CODE     ---       #78
      01000E97H   LINE      CODE     ---       #79
      01000E97H   LINE      CODE     ---       #80
      ---         BLOCKEND  ---      ---       LVL=0

      01000BC7H   BLOCK     CODE     ---       LVL=0
      020000D5H   SYMBOL    XDATA    WORD      ss
      00000001H   SYMBOL    DATA     BYTE      no
LX51 LINKER/LOCATER V4.41                                                             12/15/2021  14:01:25  PAGE 40


      01000BD1H   BLOCK     CODE     NEAR LAB  LVL=1
      020000D7H   SYMBOL    XDATA    WORD      add
      00000004H   SYMBOL    DATA     WORD      lp
      00000007H   SYMBOL    DATA     BYTE      lp2
      ---         BLOCKEND  ---      ---       LVL=1
      01000BC7H   LINE      CODE     ---       #87
      01000BD1H   LINE      CODE     ---       #88
      01000BD1H   LINE      CODE     ---       #93
      01000BDEH   LINE      CODE     ---       #94
      01000BDEH   LINE      CODE     ---       #95
      01000BE1H   LINE      CODE     ---       #97
      01000BE3H   LINE      CODE     ---       #98
      01000BE3H   LINE      CODE     ---       #99
      01000BEEH   LINE      CODE     ---       #100
      01000BF3H   LINE      CODE     ---       #102
      01000C12H   LINE      CODE     ---       #103
      01000C14H   LINE      CODE     ---       #104
      01000C17H   LINE      CODE     ---       #105
      01000C1AH   LINE      CODE     ---       #107
      01000C1DH   LINE      CODE     ---       #108
      01000C20H   LINE      CODE     ---       #109
      01000C21H   LINE      CODE     ---       #110
      01000C22H   LINE      CODE     ---       #111
      01000C23H   LINE      CODE     ---       #112
      01000C2AH   LINE      CODE     ---       #115
      01000C43H   LINE      CODE     ---       #117
      01000C60H   LINE      CODE     ---       #118
      01000C60H   LINE      CODE     ---       #119
      01000C6BH   LINE      CODE     ---       #120
      01000C72H   LINE      CODE     ---       #122
      01000C74H   LINE      CODE     ---       #123
      ---         BLOCKEND  ---      ---       LVL=0

      010005E8H   BLOCK     CODE     ---       LVL=0
      020000F5H   SYMBOL    XDATA    ---       dt
      020000F8H   SYMBOL    XDATA    WORD      ss
      020000FAH   SYMBOL    XDATA    BYTE      no
      010005FBH   BLOCK     CODE     NEAR LAB  LVL=1
      020000FBH   SYMBOL    XDATA    WORD      add
      020000FDH   SYMBOL    XDATA    WORD      lp
      00000007H   SYMBOL    DATA     BYTE      lp2
      020000FFH   SYMBOL    XDATA    ---       pdt
      ---         BLOCKEND  ---      ---       LVL=1
      010005E8H   LINE      CODE     ---       #131
      010005FBH   LINE      CODE     ---       #132
      010005FBH   LINE      CODE     ---       #136
      01000606H   LINE      CODE     ---       #138
      01000620H   LINE      CODE     ---       #139
      01000620H   LINE      CODE     ---       #140
      01000623H   LINE      CODE     ---       #142
      01000625H   LINE      CODE     ---       #143
      01000625H   LINE      CODE     ---       #144
      01000644H   LINE      CODE     ---       #145
      01000649H   LINE      CODE     ---       #147
      01000670H   LINE      CODE     ---       #148
      01000679H   LINE      CODE     ---       #149
      0100067CH   LINE      CODE     ---       #150
      0100067FH   LINE      CODE     ---       #152
      01000682H   LINE      CODE     ---       #153
      01000685H   LINE      CODE     ---       #154
      01000686H   LINE      CODE     ---       #155
      01000687H   LINE      CODE     ---       #156
      01000688H   LINE      CODE     ---       #157
      0100069AH   LINE      CODE     ---       #160
      010006B3H   LINE      CODE     ---       #162
LX51 LINKER/LOCATER V4.41                                                             12/15/2021  14:01:25  PAGE 41


      010006C8H   LINE      CODE     ---       #163
      010006F4H   LINE      CODE     ---       #164
      010006F4H   LINE      CODE     ---       #165
      0100070DH   LINE      CODE     ---       #166
      01000717H   LINE      CODE     ---       #167
      01000727H   LINE      CODE     ---       #169
      01000729H   LINE      CODE     ---       #170
      ---         BLOCKEND  ---      ---       LVL=0

      01000D21H   BLOCK     CODE     ---       LVL=0
      00000001H   SYMBOL    DATA     ---       dt
      00000004H   SYMBOL    DATA     WORD      ss
      020000FEH   SYMBOL    XDATA    BYTE      no
      01000D21H   BLOCK     CODE     NEAR LAB  LVL=1
      020000FFH   SYMBOL    XDATA    WORD      add
      02000101H   SYMBOL    XDATA    WORD      lp
      00000001H   SYMBOL    DATA     ---       pdt
      ---         BLOCKEND  ---      ---       LVL=1
      01000D21H   LINE      CODE     ---       #178
      01000D21H   LINE      CODE     ---       #179
      01000D21H   LINE      CODE     ---       #182
      01000D21H   LINE      CODE     ---       #185
      01000D36H   LINE      CODE     ---       #186
      01000D60H   LINE      CODE     ---       #187
      01000D60H   LINE      CODE     ---       #188
      01000D69H   LINE      CODE     ---       #189
      01000D70H   LINE      CODE     ---       #190
      01000D80H   LINE      CODE     ---       #192
      01000D91H   LINE      CODE     ---       #193
      ---         BLOCKEND  ---      ---       LVL=0

      01000E98H   BLOCK     CODE     ---       LVL=0
      020000D7H   SYMBOL    XDATA    WORD      sector
      01000EA0H   BLOCK     CODE     NEAR LAB  LVL=1
      020000D9H   SYMBOL    XDATA    ---       dt
      00000007H   SYMBOL    DATA     BYTE      lp
      00000006H   SYMBOL    DATA     WORD      ss
      ---         BLOCKEND  ---      ---       LVL=1
      01000E98H   LINE      CODE     ---       #195
      01000EA0H   LINE      CODE     ---       #196
      01000EA0H   LINE      CODE     ---       #201
      01000EAFH   LINE      CODE     ---       #203
      01000EB9H   LINE      CODE     ---       #205
      01000ECBH   LINE      CODE     ---       #206
      01000EEAH   LINE      CODE     ---       #207
      ---         BLOCKEND  ---      ---       LVL=0

      01000F3AH   BLOCK     CODE     ---       LVL=0
      00000006H   SYMBOL    DATA     WORD      sector
      01000F3AH   BLOCK     CODE     NEAR LAB  LVL=1
      020000D5H   SYMBOL    XDATA    ---       dt
      00000005H   SYMBOL    DATA     BYTE      lp
      00000006H   SYMBOL    DATA     WORD      ss
      00000007H   SYMBOL    DATA     CHAR      ret
      ---         BLOCKEND  ---      ---       LVL=1
      01000F3AH   LINE      CODE     ---       #209
      01000F3AH   LINE      CODE     ---       #210
      01000F3AH   LINE      CODE     ---       #216
      01000F3DH   LINE      CODE     ---       #217
      01000F41H   LINE      CODE     ---       #219
      01000F60H   LINE      CODE     ---       #221
      01000F73H   LINE      CODE     ---       #222
      01000F76H   LINE      CODE     ---       #224
      01000F7EH   LINE      CODE     ---       #225
      01000F7EH   LINE      CODE     ---       #226
LX51 LINKER/LOCATER V4.41                                                             12/15/2021  14:01:25  PAGE 42


      ---         BLOCKEND  ---      ---       LVL=0

      010010FCH   BLOCK     CODE     ---       LVL=0
      00000006H   SYMBOL    DATA     WORD      sector
      010010FCH   BLOCK     CODE     NEAR LAB  LVL=1
      00000006H   SYMBOL    DATA     WORD      ss
      00000007H   SYMBOL    DATA     CHAR      ret
      ---         BLOCKEND  ---      ---       LVL=1
      010010FCH   LINE      CODE     ---       #229
      010010FCH   LINE      CODE     ---       #230
      010010FCH   LINE      CODE     ---       #233
      01001100H   LINE      CODE     ---       #235
      01001105H   LINE      CODE     ---       #236
      0100110DH   LINE      CODE     ---       #237
      0100110DH   LINE      CODE     ---       #238
      ---         BLOCKEND  ---      ---       LVL=0

      ---         MODULE    ---      ---       DISP
      0100004EH   PUBLIC    CONST    ---       d_LEDSPEED
      0100114AH   PUBLIC    CODE     ---       Display_off
      01000B05H   PUBLIC    CODE     ---       Disp_Proc
      00000080H   SFRSYM    DATA     BYTE      P0
      00000088H   SFRSYM    DATA     BYTE      P1
      00000086H   SFRSYM    DATA     BYTE      LVICR
      00000090H   SFRSYM    DATA     BYTE      P2
      000000B5H   SFRSYM    DATA     BYTE      SPICR
      00000098H   SFRSYM    DATA     BYTE      P3
      000000B6H   SFRSYM    DATA     BYTE      SPIDR
      000000E2H   SFRSYM    DATA     BYTE      UARTCR1
      000000E3H   SFRSYM    DATA     BYTE      UARTCR2
      0000008DH   SFRSYM    DATA     BYTE      WDTCR
      000000E4H   SFRSYM    DATA     BYTE      UARTCR3
      0000008EH   SFRSYM    DATA     BYTE      WDTDR
      000000DDH   SFRSYM    DATA     BYTE      ADWIFRH
      00000097H   SFRSYM    DATA     BYTE      BUZCR
      0000008FH   SFRSYM    DATA     BYTE      BUZDR
      000000D8H   SFRSYM    DATA     BYTE      LVRCR
      000000DCH   SFRSYM    DATA     BYTE      ADWIFRL
      00000085H   SFRSYM    DATA     BYTE      DPH1
      000000A8H   SFRSYM    DATA     BYTE      IE
      00000084H   SFRSYM    DATA     BYTE      DPL1
      00000089H   SFRSYM    DATA     BYTE      WTCNT
      000000B7H   SFRSYM    DATA     BYTE      SPISR
      000000E8H   SFRSYM    DATA     BYTE      RSTFR
      000000A2H   SFRSYM    DATA     BYTE      EO
      00000091H   SFRSYM    DATA     BYTE      P0OD
      00000092H   SFRSYM    DATA     BYTE      P1OD
      00000093H   SFRSYM    DATA     BYTE      P2OD
      00000094H   SFRSYM    DATA     BYTE      P3OD
      000000B8H   SFRSYM    DATA     BYTE      IP
      000000A1H   SFRSYM    DATA     BYTE      P0IO
      000000B2H   SFRSYM    DATA     BYTE      T0CR
      000000B1H   SFRSYM    DATA     BYTE      P1IO
      000000B4H   SFRSYM    DATA     BYTE      T0DR
      000000B9H   SFRSYM    DATA     BYTE      P2IO
      000000C1H   SFRSYM    DATA     BYTE      P3IO
      00000081H   SFRSYM    DATA     BYTE      SP
      000000FDH   SFRSYM    DATA     BYTE      FIDR
      000000BDH   SFRSYM    DATA     BYTE      T1ADRH
      000000ACH   SFRSYM    DATA     BYTE      P0PU
      0000009DH   SFRSYM    DATA     BYTE      ADCCRH
      000000C5H   SFRSYM    DATA     BYTE      T2ADRH
      000000BFH   SFRSYM    DATA     BYTE      T1BDRH
      000000ADH   SFRSYM    DATA     BYTE      P1PU
      0000009FH   SFRSYM    DATA     BYTE      ADCDRH
LX51 LINKER/LOCATER V4.41                                                             12/15/2021  14:01:25  PAGE 43


      000000C7H   SFRSYM    DATA     BYTE      T2BDRH
      000000AEH   SFRSYM    DATA     BYTE      P2PU
      000000FEH   SFRSYM    DATA     BYTE      FMCR
      000000AFH   SFRSYM    DATA     BYTE      P3PU
      000000BCH   SFRSYM    DATA     BYTE      T1ADRL
      0000009CH   SFRSYM    DATA     BYTE      ADCCRL
      000000C4H   SFRSYM    DATA     BYTE      T2ADRL
      000000BEH   SFRSYM    DATA     BYTE      T1BDRL
      0000009EH   SFRSYM    DATA     BYTE      ADCDRL
      000000C6H   SFRSYM    DATA     BYTE      T2BDRL
      0000008AH   SFRSYM    DATA     BYTE      SCCR
      000000A6H   SFRSYM    DATA     BYTE      EIPOL1
      000000A7H   SFRSYM    DATA     BYTE      EIPOL2
      000000A0H   SFRSYM    DATA     BYTE      IIFLAG
      00000080H   SFRSYM    DATA     BIT       P00
      00000087H   SFRSYM    DATA     BYTE      PCON
      00000088H   SFRSYM    DATA     BIT       P10
      00000080H.1 SFRSYM    DATA     BIT       P01
      00000090H   SFRSYM    DATA     BIT       P20
      00000088H.1 SFRSYM    DATA     BIT       P11
      00000080H.2 SFRSYM    DATA     BIT       P02
      00000098H   SFRSYM    DATA     BIT       P30
      00000090H.1 SFRSYM    DATA     BIT       P21
      00000088H.2 SFRSYM    DATA     BIT       P12
      00000080H.3 SFRSYM    DATA     BIT       P03
      00000098H.1 SFRSYM    DATA     BIT       P31
      00000090H.2 SFRSYM    DATA     BIT       P22
      00000088H.3 SFRSYM    DATA     BIT       P13
      00000080H.4 SFRSYM    DATA     BIT       P04
      00000098H.2 SFRSYM    DATA     BIT       P32
      00000090H.3 SFRSYM    DATA     BIT       P23
      00000088H.4 SFRSYM    DATA     BIT       P14
      00000080H.5 SFRSYM    DATA     BIT       P05
      000000D5H   SFRSYM    DATA     BYTE      P1FSRH
      00000098H.3 SFRSYM    DATA     BIT       P33
      00000090H.4 SFRSYM    DATA     BIT       P24
      00000088H.5 SFRSYM    DATA     BIT       P15
      00000080H.6 SFRSYM    DATA     BIT       P06
      00000098H.4 SFRSYM    DATA     BIT       P34
      00000090H.5 SFRSYM    DATA     BIT       P25
      00000088H.6 SFRSYM    DATA     BIT       P16
      00000080H.7 SFRSYM    DATA     BIT       P07
      00000098H.5 SFRSYM    DATA     BIT       P35
      00000090H.6 SFRSYM    DATA     BIT       P26
      00000088H.7 SFRSYM    DATA     BIT       P17
      00000098H.6 SFRSYM    DATA     BIT       P36
      00000090H.7 SFRSYM    DATA     BIT       P27
      000000FAH   SFRSYM    DATA     BYTE      FSADRH
      000000D4H   SFRSYM    DATA     BYTE      P1FSRL
      00000098H.7 SFRSYM    DATA     BIT       P37
      000000DFH   SFRSYM    DATA     BYTE      P12DB
      000000DEH   SFRSYM    DATA     BYTE      P03DB
      000000F7H   SFRSYM    DATA     BYTE      ADWCRH
      000000FCH   SFRSYM    DATA     BYTE      FSADRL
      000000FBH   SFRSYM    DATA     BYTE      FSADRM
      000000F6H   SFRSYM    DATA     BYTE      ADWCRL
      000000A9H   SFRSYM    DATA     BYTE      IE1
      000000AAH   SFRSYM    DATA     BYTE      IE2
      000000F0H   SFRSYM    DATA     BYTE      B
      00000096H   SFRSYM    DATA     BYTE      WTCR
      000000ABH   SFRSYM    DATA     BYTE      IE3
      00000089H   SFRSYM    DATA     BYTE      WTDR
      000000E6H   SFRSYM    DATA     BYTE      UARTBD
      0000008CH   SFRSYM    DATA     BYTE      BITCNT
      000000E0H   SFRSYM    DATA     BYTE      ACC
LX51 LINKER/LOCATER V4.41                                                             12/15/2021  14:01:25  PAGE 44


      000000F8H   SFRSYM    DATA     BYTE      IP1
      000000E9H   SFRSYM    DATA     BYTE      I2CCR
      000000E7H   SFRSYM    DATA     BYTE      UARTDR
      000000ECH   SFRSYM    DATA     BYTE      I2CDR
      000000EBH   SFRSYM    DATA     BYTE      I2CSAR0
      0000008EH   SFRSYM    DATA     BYTE      WDTCNT
      000000F1H   SFRSYM    DATA     BYTE      I2CSAR1
      000000C0H   SFRSYM    DATA     BYTE      EIFLAG0
      000000B0H   SFRSYM    DATA     BYTE      EIFLAG1
      00000083H   SFRSYM    DATA     BYTE      DPH
      000000BCH   SFRSYM    DATA     WORD      T1ADR
      000000C4H   SFRSYM    DATA     WORD      T2ADR
      000000BEH   SFRSYM    DATA     WORD      T1BDR
      000000B4H   SFRSYM    DATA     BYTE      T0CDR
      000000C6H   SFRSYM    DATA     WORD      T2BDR
      00000082H   SFRSYM    DATA     BYTE      DPL
      000000BBH   SFRSYM    DATA     BYTE      T1CRH
      000000EAH   SFRSYM    DATA     BYTE      I2CSR
      000000C3H   SFRSYM    DATA     BYTE      T2CRH
      000000E5H   SFRSYM    DATA     BYTE      UARTST
      000000BAH   SFRSYM    DATA     BYTE      T1CRL
      000000C2H   SFRSYM    DATA     BYTE      T2CRL
      000000B3H   SFRSYM    DATA     BYTE      T0CNT
      000000D3H   SFRSYM    DATA     BYTE      P0FSR
      000000D6H   SFRSYM    DATA     BYTE      P2FSR
      000000D7H   SFRSYM    DATA     BYTE      P3FSR
      000000EFH   SFRSYM    DATA     BYTE      I2CSCHR
      000000EDH   SFRSYM    DATA     BYTE      I2CSDHR
      000000A5H   SFRSYM    DATA     BYTE      EIPOL0H
      000000EEH   SFRSYM    DATA     BYTE      I2CSCLR
      000000F2H   SFRSYM    DATA     BYTE      ADWRCR0
      0000008BH   SFRSYM    DATA     BYTE      BITCR
      000000F3H   SFRSYM    DATA     BYTE      ADWRCR1
      000000F4H   SFRSYM    DATA     BYTE      ADWRCR2
      000000A4H   SFRSYM    DATA     BYTE      EIPOL0L
      000000F5H   SFRSYM    DATA     BYTE      ADWRCR3
      000000D0H   SFRSYM    DATA     BYTE      PSW
      000000C8H   SFRSYM    DATA     BYTE      OSCCR

      01000B05H   BLOCK     CODE     ---       LVL=0
      01000B05H   LINE      CODE     ---       #29
      01000B05H   LINE      CODE     ---       #30
      01000B05H   LINE      CODE     ---       #31
      01000B12H   LINE      CODE     ---       #32
      01000B12H   LINE      CODE     ---       #33
      01000B12H   LINE      CODE     ---       #34
      01000B1BH   LINE      CODE     ---       #35
      01000B1DH   LINE      CODE     ---       #36
      01000B1FH   LINE      CODE     ---       #37
      01000B1FH   LINE      CODE     ---       #38
      01000B22H   LINE      CODE     ---       #39
      01000B27H   LINE      CODE     ---       #40
      01000B27H   LINE      CODE     ---       #41
      01000B2CH   LINE      CODE     ---       #42
      01000B2CH   LINE      CODE     ---       #43
      01000B39H   LINE      CODE     ---       #44
      01000B3BH   LINE      CODE     ---       #45
      01000B3BH   LINE      CODE     ---       #46
      01000B48H   LINE      CODE     ---       #47
      01000B48H   LINE      CODE     ---       #48
      01000B4AH   LINE      CODE     ---       #49
      01000B4AH   LINE      CODE     ---       #50
      01000B52H   LINE      CODE     ---       #51
      01000B52H   LINE      CODE     ---       #52
      01000B55H   LINE      CODE     ---       #53
LX51 LINKER/LOCATER V4.41                                                             12/15/2021  14:01:25  PAGE 45


      01000B55H   LINE      CODE     ---       #54
      01000B5BH   LINE      CODE     ---       #56
      01000B5BH   LINE      CODE     ---       #57
      01000B5EH   LINE      CODE     ---       #58
      01000B60H   LINE      CODE     ---       #59
      01000B60H   LINE      CODE     ---       #60
      01000B6BH   LINE      CODE     ---       #62
      01000B6BH   LINE      CODE     ---       #63
      01000B7CH   LINE      CODE     ---       #64
      01000B7CH   LINE      CODE     ---       #65
      01000B89H   LINE      CODE     ---       #66
      01000B89H   LINE      CODE     ---       #67
      01000BB1H   LINE      CODE     ---       #68
      01000BB1H   LINE      CODE     ---       #69
      01000BB1H   LINE      CODE     ---       #70
      01000BB1H   LINE      CODE     ---       #72
      01000BB3H   LINE      CODE     ---       #73
      01000BB5H   LINE      CODE     ---       #74
      01000BB5H   LINE      CODE     ---       #75
      01000BB8H   LINE      CODE     ---       #76
      01000BBBH   LINE      CODE     ---       #77
      01000BBBH   LINE      CODE     ---       #78
      01000BBBH   LINE      CODE     ---       #80
      01000BBEH   LINE      CODE     ---       #81
      01000BC6H   LINE      CODE     ---       #82
      ---         BLOCKEND  ---      ---       LVL=0

      0100114AH   BLOCK     CODE     ---       LVL=0
      0100114AH   LINE      CODE     ---       #86
      0100114AH   LINE      CODE     ---       #87
      0100114AH   LINE      CODE     ---       #88
      0100114CH   LINE      CODE     ---       #89
      0100114EH   LINE      CODE     ---       #90
      01001151H   LINE      CODE     ---       #91
      ---         BLOCKEND  ---      ---       LVL=0

      ---         MODULE    ---      ---       UART
      01001000H   PUBLIC    CODE     ---       TX_Int
      01000C75H   PUBLIC    CODE     ---       RX_Int
      00000080H   SFRSYM    DATA     BYTE      P0
      00000088H   SFRSYM    DATA     BYTE      P1
      00000086H   SFRSYM    DATA     BYTE      LVICR
      00000090H   SFRSYM    DATA     BYTE      P2
      000000B5H   SFRSYM    DATA     BYTE      SPICR
      00000098H   SFRSYM    DATA     BYTE      P3
      000000B6H   SFRSYM    DATA     BYTE      SPIDR
      000000E2H   SFRSYM    DATA     BYTE      UARTCR1
      000000E3H   SFRSYM    DATA     BYTE      UARTCR2
      0000008DH   SFRSYM    DATA     BYTE      WDTCR
      000000E4H   SFRSYM    DATA     BYTE      UARTCR3
      0000008EH   SFRSYM    DATA     BYTE      WDTDR
      000000DDH   SFRSYM    DATA     BYTE      ADWIFRH
      00000097H   SFRSYM    DATA     BYTE      BUZCR
      0000008FH   SFRSYM    DATA     BYTE      BUZDR
      000000D8H   SFRSYM    DATA     BYTE      LVRCR
      000000DCH   SFRSYM    DATA     BYTE      ADWIFRL
      00000085H   SFRSYM    DATA     BYTE      DPH1
      000000A8H   SFRSYM    DATA     BYTE      IE
      00000084H   SFRSYM    DATA     BYTE      DPL1
      00000089H   SFRSYM    DATA     BYTE      WTCNT
      000000B7H   SFRSYM    DATA     BYTE      SPISR
      000000E8H   SFRSYM    DATA     BYTE      RSTFR
      000000A2H   SFRSYM    DATA     BYTE      EO
      00000091H   SFRSYM    DATA     BYTE      P0OD
      00000092H   SFRSYM    DATA     BYTE      P1OD
LX51 LINKER/LOCATER V4.41                                                             12/15/2021  14:01:25  PAGE 46


      00000093H   SFRSYM    DATA     BYTE      P2OD
      00000094H   SFRSYM    DATA     BYTE      P3OD
      000000B8H   SFRSYM    DATA     BYTE      IP
      000000A1H   SFRSYM    DATA     BYTE      P0IO
      000000B2H   SFRSYM    DATA     BYTE      T0CR
      000000B1H   SFRSYM    DATA     BYTE      P1IO
      000000B4H   SFRSYM    DATA     BYTE      T0DR
      000000B9H   SFRSYM    DATA     BYTE      P2IO
      000000C1H   SFRSYM    DATA     BYTE      P3IO
      00000081H   SFRSYM    DATA     BYTE      SP
      000000FDH   SFRSYM    DATA     BYTE      FIDR
      000000BDH   SFRSYM    DATA     BYTE      T1ADRH
      000000ACH   SFRSYM    DATA     BYTE      P0PU
      0000009DH   SFRSYM    DATA     BYTE      ADCCRH
      000000C5H   SFRSYM    DATA     BYTE      T2ADRH
      000000BFH   SFRSYM    DATA     BYTE      T1BDRH
      000000ADH   SFRSYM    DATA     BYTE      P1PU
      0000009FH   SFRSYM    DATA     BYTE      ADCDRH
      000000C7H   SFRSYM    DATA     BYTE      T2BDRH
      000000AEH   SFRSYM    DATA     BYTE      P2PU
      000000FEH   SFRSYM    DATA     BYTE      FMCR
      000000AFH   SFRSYM    DATA     BYTE      P3PU
      000000BCH   SFRSYM    DATA     BYTE      T1ADRL
      0000009CH   SFRSYM    DATA     BYTE      ADCCRL
      000000C4H   SFRSYM    DATA     BYTE      T2ADRL
      000000BEH   SFRSYM    DATA     BYTE      T1BDRL
      0000009EH   SFRSYM    DATA     BYTE      ADCDRL
      000000C6H   SFRSYM    DATA     BYTE      T2BDRL
      0000008AH   SFRSYM    DATA     BYTE      SCCR
      000000A6H   SFRSYM    DATA     BYTE      EIPOL1
      000000A7H   SFRSYM    DATA     BYTE      EIPOL2
      000000A0H   SFRSYM    DATA     BYTE      IIFLAG
      00000080H   SFRSYM    DATA     BIT       P00
      00000087H   SFRSYM    DATA     BYTE      PCON
      00000088H   SFRSYM    DATA     BIT       P10
      00000080H.1 SFRSYM    DATA     BIT       P01
      00000090H   SFRSYM    DATA     BIT       P20
      00000088H.1 SFRSYM    DATA     BIT       P11
      00000080H.2 SFRSYM    DATA     BIT       P02
      00000098H   SFRSYM    DATA     BIT       P30
      00000090H.1 SFRSYM    DATA     BIT       P21
      00000088H.2 SFRSYM    DATA     BIT       P12
      00000080H.3 SFRSYM    DATA     BIT       P03
      00000098H.1 SFRSYM    DATA     BIT       P31
      00000090H.2 SFRSYM    DATA     BIT       P22
      00000088H.3 SFRSYM    DATA     BIT       P13
      00000080H.4 SFRSYM    DATA     BIT       P04
      00000098H.2 SFRSYM    DATA     BIT       P32
      00000090H.3 SFRSYM    DATA     BIT       P23
      00000088H.4 SFRSYM    DATA     BIT       P14
      00000080H.5 SFRSYM    DATA     BIT       P05
      000000D5H   SFRSYM    DATA     BYTE      P1FSRH
      00000098H.3 SFRSYM    DATA     BIT       P33
      00000090H.4 SFRSYM    DATA     BIT       P24
      00000088H.5 SFRSYM    DATA     BIT       P15
      00000080H.6 SFRSYM    DATA     BIT       P06
      00000098H.4 SFRSYM    DATA     BIT       P34
      00000090H.5 SFRSYM    DATA     BIT       P25
      00000088H.6 SFRSYM    DATA     BIT       P16
      00000080H.7 SFRSYM    DATA     BIT       P07
      00000098H.5 SFRSYM    DATA     BIT       P35
      00000090H.6 SFRSYM    DATA     BIT       P26
      00000088H.7 SFRSYM    DATA     BIT       P17
      00000098H.6 SFRSYM    DATA     BIT       P36
      00000090H.7 SFRSYM    DATA     BIT       P27
LX51 LINKER/LOCATER V4.41                                                             12/15/2021  14:01:25  PAGE 47


      000000FAH   SFRSYM    DATA     BYTE      FSADRH
      000000D4H   SFRSYM    DATA     BYTE      P1FSRL
      00000098H.7 SFRSYM    DATA     BIT       P37
      000000DFH   SFRSYM    DATA     BYTE      P12DB
      000000DEH   SFRSYM    DATA     BYTE      P03DB
      000000F7H   SFRSYM    DATA     BYTE      ADWCRH
      000000FCH   SFRSYM    DATA     BYTE      FSADRL
      000000FBH   SFRSYM    DATA     BYTE      FSADRM
      000000F6H   SFRSYM    DATA     BYTE      ADWCRL
      000000A9H   SFRSYM    DATA     BYTE      IE1
      000000AAH   SFRSYM    DATA     BYTE      IE2
      000000F0H   SFRSYM    DATA     BYTE      B
      00000096H   SFRSYM    DATA     BYTE      WTCR
      000000ABH   SFRSYM    DATA     BYTE      IE3
      00000089H   SFRSYM    DATA     BYTE      WTDR
      000000E6H   SFRSYM    DATA     BYTE      UARTBD
      0000008CH   SFRSYM    DATA     BYTE      BITCNT
      000000E0H   SFRSYM    DATA     BYTE      ACC
      000000F8H   SFRSYM    DATA     BYTE      IP1
      000000E9H   SFRSYM    DATA     BYTE      I2CCR
      000000E7H   SFRSYM    DATA     BYTE      UARTDR
      000000ECH   SFRSYM    DATA     BYTE      I2CDR
      000000EBH   SFRSYM    DATA     BYTE      I2CSAR0
      0000008EH   SFRSYM    DATA     BYTE      WDTCNT
      000000F1H   SFRSYM    DATA     BYTE      I2CSAR1
      000000C0H   SFRSYM    DATA     BYTE      EIFLAG0
      000000B0H   SFRSYM    DATA     BYTE      EIFLAG1
      00000083H   SFRSYM    DATA     BYTE      DPH
      000000BCH   SFRSYM    DATA     WORD      T1ADR
      000000C4H   SFRSYM    DATA     WORD      T2ADR
      000000BEH   SFRSYM    DATA     WORD      T1BDR
      000000B4H   SFRSYM    DATA     BYTE      T0CDR
      000000C6H   SFRSYM    DATA     WORD      T2BDR
      00000082H   SFRSYM    DATA     BYTE      DPL
      000000BBH   SFRSYM    DATA     BYTE      T1CRH
      000000EAH   SFRSYM    DATA     BYTE      I2CSR
      000000C3H   SFRSYM    DATA     BYTE      T2CRH
      000000E5H   SFRSYM    DATA     BYTE      UARTST
      000000BAH   SFRSYM    DATA     BYTE      T1CRL
      000000C2H   SFRSYM    DATA     BYTE      T2CRL
      000000B3H   SFRSYM    DATA     BYTE      T0CNT
      000000D3H   SFRSYM    DATA     BYTE      P0FSR
      000000D6H   SFRSYM    DATA     BYTE      P2FSR
      000000D7H   SFRSYM    DATA     BYTE      P3FSR
      000000EFH   SFRSYM    DATA     BYTE      I2CSCHR
      000000EDH   SFRSYM    DATA     BYTE      I2CSDHR
      000000A5H   SFRSYM    DATA     BYTE      EIPOL0H
      000000EEH   SFRSYM    DATA     BYTE      I2CSCLR
      000000F2H   SFRSYM    DATA     BYTE      ADWRCR0
      0000008BH   SFRSYM    DATA     BYTE      BITCR
      000000F3H   SFRSYM    DATA     BYTE      ADWRCR1
      000000F4H   SFRSYM    DATA     BYTE      ADWRCR2
      000000A4H   SFRSYM    DATA     BYTE      EIPOL0L
      000000F5H   SFRSYM    DATA     BYTE      ADWRCR3
      000000D0H   SFRSYM    DATA     BYTE      PSW
      000000C8H   SFRSYM    DATA     BYTE      OSCCR

      01000C75H   BLOCK     CODE     ---       LVL=0
      01000C75H   LINE      CODE     ---       #95
      01000C84H   LINE      CODE     ---       #97
      01000C8AH   LINE      CODE     ---       #99
      01000C9CH   LINE      CODE     ---       #100
      01000CA8H   LINE      CODE     ---       #101
      01000CA8H   LINE      CODE     ---       #102
      01000CA8H   LINE      CODE     ---       #103
LX51 LINKER/LOCATER V4.41                                                             12/15/2021  14:01:25  PAGE 48


      01000CACH   LINE      CODE     ---       #104
      01000CACH   LINE      CODE     ---       #105
      01000CAFH   LINE      CODE     ---       #106
      01000CAFH   LINE      CODE     ---       #107
      01000CB6H   LINE      CODE     ---       #108
      01000CB8H   LINE      CODE     ---       #109
      01000CB8H   LINE      CODE     ---       #110
      01000CB8H   LINE      CODE     ---       #111
      01000CB8H   LINE      CODE     ---       #112
      01000CBEH   LINE      CODE     ---       #113
      01000CC4H   LINE      CODE     ---       #114
      01000CC6H   LINE      CODE     ---       #115
      01000CC6H   LINE      CODE     ---       #116
      01000CCBH   LINE      CODE     ---       #117
      01000CD2H   LINE      CODE     ---       #118
      01000CD2H   LINE      CODE     ---       #119
      01000CD9H   LINE      CODE     ---       #120
      01000CE1H   LINE      CODE     ---       #121
      01000CE9H   LINE      CODE     ---       #122
      01000CF1H   LINE      CODE     ---       #123
      01000CF6H   LINE      CODE     ---       #124
      01000CFCH   LINE      CODE     ---       #125
      01000D02H   LINE      CODE     ---       #126
      01000D07H   LINE      CODE     ---       #127
      01000D09H   LINE      CODE     ---       #128
      01000D09H   LINE      CODE     ---       #129
      01000D0EH   LINE      CODE     ---       #130
      01000D14H   LINE      CODE     ---       #131
      01000D14H   LINE      CODE     ---       #132
      01000D14H   LINE      CODE     ---       #133
      01000D14H   LINE      CODE     ---       #134
      ---         BLOCKEND  ---      ---       LVL=0

      01001000H   BLOCK     CODE     ---       LVL=0
      01001000H   LINE      CODE     ---       #154
      01001008H   LINE      CODE     ---       #156
      01001018H   LINE      CODE     ---       #158
      0100101EH   LINE      CODE     ---       #159
      01001022H   LINE      CODE     ---       #160
      01001022H   LINE      CODE     ---       #161
      01001024H   LINE      CODE     ---       #162
      01001028H   LINE      CODE     ---       #163
      0100102BH   LINE      CODE     ---       #164
      0100102BH   LINE      CODE     ---       #166
      ---         BLOCKEND  ---      ---       LVL=0

      ---         MODULE    ---      ---       ?C?CLDPTR
      01001152H   PUBLIC    CODE     ---       ?C?CLDPTR

      ---         MODULE    ---      ---       ?C?CLDOPTR
      0100116BH   PUBLIC    CODE     ---       ?C?CLDOPTR

      ---         MODULE    ---      ---       ?C?CSTPTR
      01001198H   PUBLIC    CODE     ---       ?C?CSTPTR

      ---         MODULE    ---      ---       ?C?IILDX
      010011AAH   PUBLIC    CODE     ---       ?C?IILDX

      ---         MODULE    ---      ---       ?C?ILDOPTR
      010011C0H   PUBLIC    CODE     ---       ?C?ILDOPTR

      ---         MODULE    ---      ---       ?C?ISTOPTR
      010011F8H   PUBLIC    CODE     ---       ?C?ISTOPTR

      ---         MODULE    ---      ---       ?C?SLCMP
LX51 LINKER/LOCATER V4.41                                                             12/15/2021  14:01:25  PAGE 49


      01001225H   PUBLIC    CODE     ---       ?C?SLCMP

      ---         MODULE    ---      ---       ?C?MEMSET
      0100123BH   PUBLIC    CODE     ---       ?C?MEMSET

Program Size: data=64.0 xdata=259 const=49 code=4690
LX51 RUN COMPLETE.  0 WARNING(S),  0 ERROR(S)
